
fib:     file format elf64-littleriscv


Disassembly of section .text:

00000000000100b0 <register_fini>:
   100b0:	000007b7          	lui	a5,0x0
   100b4:	00078793          	mv	a5,a5
   100b8:	00078a63          	beqz	a5,100cc <register_fini+0x1c>
   100bc:	00014537          	lui	a0,0x14
   100c0:	ef450513          	addi	a0,a0,-268 # 13ef4 <__libc_fini_array>
   100c4:	0000e317          	auipc	t1,0xe
   100c8:	f6c30067          	jr	-148(t1) # 1e030 <atexit>
   100cc:	00008067          	ret

00000000000100d0 <_start>:
   100d0:	00014197          	auipc	gp,0x14
   100d4:	13818193          	addi	gp,gp,312 # 24208 <__global_pointer$>
   100d8:	00015517          	auipc	a0,0x15
   100dc:	89850513          	addi	a0,a0,-1896 # 24970 <prev2>
   100e0:	00015617          	auipc	a2,0x15
   100e4:	92860613          	addi	a2,a2,-1752 # 24a08 <__BSS_END__>
   100e8:	40a60633          	sub	a2,a2,a0
   100ec:	00000593          	li	a1,0
   100f0:	00000097          	auipc	ra,0x0
   100f4:	3c8080e7          	jalr	968(ra) # 104b8 <memset>
   100f8:	0000e517          	auipc	a0,0xe
   100fc:	f3850513          	addi	a0,a0,-200 # 1e030 <atexit>
   10100:	00050a63          	beqz	a0,10114 <_start+0x44>
   10104:	00004517          	auipc	a0,0x4
   10108:	df050513          	addi	a0,a0,-528 # 13ef4 <__libc_fini_array>
   1010c:	0000e097          	auipc	ra,0xe
   10110:	f24080e7          	jalr	-220(ra) # 1e030 <atexit>
   10114:	00000097          	auipc	ra,0x0
   10118:	308080e7          	jalr	776(ra) # 1041c <__libc_init_array>
   1011c:	00012503          	lw	a0,0(sp)
   10120:	00810593          	addi	a1,sp,8
   10124:	00000613          	li	a2,0
   10128:	00000097          	auipc	ra,0x0
   1012c:	1f8080e7          	jalr	504(ra) # 10320 <main>
   10130:	00000317          	auipc	t1,0x0
   10134:	2b030067          	jr	688(t1) # 103e0 <exit>

0000000000010138 <__do_global_dtors_aux>:
   10138:	000257b7          	lui	a5,0x25
   1013c:	9a07c703          	lbu	a4,-1632(a5) # 249a0 <completed.5525>
   10140:	04071463          	bnez	a4,10188 <__do_global_dtors_aux+0x50>
   10144:	ff010113          	addi	sp,sp,-16
   10148:	00813023          	sd	s0,0(sp)
   1014c:	00078413          	mv	s0,a5
   10150:	000007b7          	lui	a5,0x0
   10154:	00113423          	sd	ra,8(sp)
   10158:	00078793          	mv	a5,a5
   1015c:	00078a63          	beqz	a5,10170 <__do_global_dtors_aux+0x38>
   10160:	00023537          	lui	a0,0x23
   10164:	7f050513          	addi	a0,a0,2032 # 237f0 <__FRAME_END__>
   10168:	00000097          	auipc	ra,0x0
   1016c:	000000e7          	jalr	zero # 0 <register_fini-0x100b0>
   10170:	00100793          	li	a5,1
   10174:	00813083          	ld	ra,8(sp)
   10178:	9af40023          	sb	a5,-1632(s0)
   1017c:	00013403          	ld	s0,0(sp)
   10180:	01010113          	addi	sp,sp,16
   10184:	00008067          	ret
   10188:	00008067          	ret

000000000001018c <frame_dummy>:
   1018c:	000007b7          	lui	a5,0x0
   10190:	00078793          	mv	a5,a5
   10194:	00078e63          	beqz	a5,101b0 <frame_dummy+0x24>
   10198:	000255b7          	lui	a1,0x25
   1019c:	00023537          	lui	a0,0x23
   101a0:	9a858593          	addi	a1,a1,-1624 # 249a8 <object.5530>
   101a4:	7f050513          	addi	a0,a0,2032 # 237f0 <__FRAME_END__>
   101a8:	00000317          	auipc	t1,0x0
   101ac:	00000067          	jr	zero # 0 <register_fini-0x100b0>
   101b0:	00008067          	ret

00000000000101b4 <fib>:
   101b4:	fd010113          	addi	sp,sp,-48
   101b8:	02113423          	sd	ra,40(sp)
   101bc:	02813023          	sd	s0,32(sp)
   101c0:	03010413          	addi	s0,sp,48
   101c4:	00050793          	mv	a5,a0
   101c8:	fcf42e23          	sw	a5,-36(s0)
   101cc:	fdc42783          	lw	a5,-36(s0)
   101d0:	0007871b          	sext.w	a4,a5
   101d4:	00200793          	li	a5,2
   101d8:	06e7d663          	bge	a5,a4,10244 <fib+0x90>
   101dc:	000257b7          	lui	a5,0x25
   101e0:	9507a703          	lw	a4,-1712(a5) # 24950 <prev1>
   101e4:	000257b7          	lui	a5,0x25
   101e8:	9707a783          	lw	a5,-1680(a5) # 24970 <prev2>
   101ec:	00f707bb          	addw	a5,a4,a5
   101f0:	fef42623          	sw	a5,-20(s0)
   101f4:	000257b7          	lui	a5,0x25
   101f8:	9507a703          	lw	a4,-1712(a5) # 24950 <prev1>
   101fc:	000257b7          	lui	a5,0x25
   10200:	96e7a823          	sw	a4,-1680(a5) # 24970 <prev2>
   10204:	000257b7          	lui	a5,0x25
   10208:	fec42703          	lw	a4,-20(s0)
   1020c:	94e7a823          	sw	a4,-1712(a5) # 24950 <prev1>
   10210:	fec42783          	lw	a5,-20(s0)
   10214:	00078593          	mv	a1,a5
   10218:	000227b7          	lui	a5,0x22
   1021c:	a4078513          	addi	a0,a5,-1472 # 21a40 <__clzdi2+0x3c>
   10220:	00000097          	auipc	ra,0x0
   10224:	3b8080e7          	jalr	952(ra) # 105d8 <printf>
   10228:	fdc42783          	lw	a5,-36(s0)
   1022c:	fff7879b          	addiw	a5,a5,-1
   10230:	0007879b          	sext.w	a5,a5
   10234:	00078513          	mv	a0,a5
   10238:	00000097          	auipc	ra,0x0
   1023c:	f7c080e7          	jalr	-132(ra) # 101b4 <fib>
   10240:	0080006f          	j	10248 <fib+0x94>
   10244:	00000013          	nop
   10248:	02813083          	ld	ra,40(sp)
   1024c:	02013403          	ld	s0,32(sp)
   10250:	03010113          	addi	sp,sp,48
   10254:	00008067          	ret

0000000000010258 <printFib>:
   10258:	fe010113          	addi	sp,sp,-32
   1025c:	00113c23          	sd	ra,24(sp)
   10260:	00813823          	sd	s0,16(sp)
   10264:	02010413          	addi	s0,sp,32
   10268:	00050793          	mv	a5,a0
   1026c:	fef42623          	sw	a5,-20(s0)
   10270:	fec42783          	lw	a5,-20(s0)
   10274:	0007879b          	sext.w	a5,a5
   10278:	00f04c63          	bgtz	a5,10290 <printFib+0x38>
   1027c:	000227b7          	lui	a5,0x22
   10280:	a4878513          	addi	a0,a5,-1464 # 21a48 <__clzdi2+0x44>
   10284:	00000097          	auipc	ra,0x0
   10288:	60c080e7          	jalr	1548(ra) # 10890 <puts>
   1028c:	0840006f          	j	10310 <printFib+0xb8>
   10290:	fec42783          	lw	a5,-20(s0)
   10294:	0007871b          	sext.w	a4,a5
   10298:	00100793          	li	a5,1
   1029c:	00f71e63          	bne	a4,a5,102b8 <printFib+0x60>
   102a0:	00000593          	li	a1,0
   102a4:	000227b7          	lui	a5,0x22
   102a8:	a4078513          	addi	a0,a5,-1472 # 21a40 <__clzdi2+0x3c>
   102ac:	00000097          	auipc	ra,0x0
   102b0:	32c080e7          	jalr	812(ra) # 105d8 <printf>
   102b4:	05c0006f          	j	10310 <printFib+0xb8>
   102b8:	fec42783          	lw	a5,-20(s0)
   102bc:	0007871b          	sext.w	a4,a5
   102c0:	00200793          	li	a5,2
   102c4:	02f71063          	bne	a4,a5,102e4 <printFib+0x8c>
   102c8:	00100613          	li	a2,1
   102cc:	00000593          	li	a1,0
   102d0:	000227b7          	lui	a5,0x22
   102d4:	a6078513          	addi	a0,a5,-1440 # 21a60 <__clzdi2+0x5c>
   102d8:	00000097          	auipc	ra,0x0
   102dc:	300080e7          	jalr	768(ra) # 105d8 <printf>
   102e0:	0300006f          	j	10310 <printFib+0xb8>
   102e4:	00100613          	li	a2,1
   102e8:	00000593          	li	a1,0
   102ec:	000227b7          	lui	a5,0x22
   102f0:	a6878513          	addi	a0,a5,-1432 # 21a68 <__clzdi2+0x64>
   102f4:	00000097          	auipc	ra,0x0
   102f8:	2e4080e7          	jalr	740(ra) # 105d8 <printf>
   102fc:	fec42783          	lw	a5,-20(s0)
   10300:	00078513          	mv	a0,a5
   10304:	00000097          	auipc	ra,0x0
   10308:	eb0080e7          	jalr	-336(ra) # 101b4 <fib>
   1030c:	00000013          	nop
   10310:	01813083          	ld	ra,24(sp)
   10314:	01013403          	ld	s0,16(sp)
   10318:	02010113          	addi	sp,sp,32
   1031c:	00008067          	ret

0000000000010320 <main>:
   10320:	fd010113          	addi	sp,sp,-48
   10324:	02113423          	sd	ra,40(sp)
   10328:	02813023          	sd	s0,32(sp)
   1032c:	03010413          	addi	s0,sp,48
   10330:	00050793          	mv	a5,a0
   10334:	fcb43823          	sd	a1,-48(s0)
   10338:	fcf42e23          	sw	a5,-36(s0)
   1033c:	fd043783          	ld	a5,-48(s0)
   10340:	00878793          	addi	a5,a5,8
   10344:	0007b783          	ld	a5,0(a5)
   10348:	00078513          	mv	a0,a5
   1034c:	00000097          	auipc	ra,0x0
   10350:	044080e7          	jalr	68(ra) # 10390 <atoi>
   10354:	00050793          	mv	a5,a0
   10358:	fef42623          	sw	a5,-20(s0)
   1035c:	fec42783          	lw	a5,-20(s0)
   10360:	00078513          	mv	a0,a5
   10364:	00000097          	auipc	ra,0x0
   10368:	ef4080e7          	jalr	-268(ra) # 10258 <printFib>
   1036c:	00a00513          	li	a0,10
   10370:	00000097          	auipc	ra,0x0
   10374:	2c8080e7          	jalr	712(ra) # 10638 <putchar>
   10378:	00000793          	li	a5,0
   1037c:	00078513          	mv	a0,a5
   10380:	02813083          	ld	ra,40(sp)
   10384:	02013403          	ld	s0,32(sp)
   10388:	03010113          	addi	sp,sp,48
   1038c:	00008067          	ret

0000000000010390 <atoi>:
   10390:	ff010113          	addi	sp,sp,-16
   10394:	00a00613          	li	a2,10
   10398:	00000593          	li	a1,0
   1039c:	00113423          	sd	ra,8(sp)
   103a0:	00000097          	auipc	ra,0x0
   103a4:	7d8080e7          	jalr	2008(ra) # 10b78 <strtol>
   103a8:	00813083          	ld	ra,8(sp)
   103ac:	0005051b          	sext.w	a0,a0
   103b0:	01010113          	addi	sp,sp,16
   103b4:	00008067          	ret

00000000000103b8 <_atoi_r>:
   103b8:	ff010113          	addi	sp,sp,-16
   103bc:	00a00693          	li	a3,10
   103c0:	00000613          	li	a2,0
   103c4:	00113423          	sd	ra,8(sp)
   103c8:	00000097          	auipc	ra,0x0
   103cc:	788080e7          	jalr	1928(ra) # 10b50 <_strtol_r>
   103d0:	00813083          	ld	ra,8(sp)
   103d4:	0005051b          	sext.w	a0,a0
   103d8:	01010113          	addi	sp,sp,16
   103dc:	00008067          	ret

00000000000103e0 <exit>:
   103e0:	ff010113          	addi	sp,sp,-16
   103e4:	00000593          	li	a1,0
   103e8:	00813023          	sd	s0,0(sp)
   103ec:	00113423          	sd	ra,8(sp)
   103f0:	00050413          	mv	s0,a0
   103f4:	00003097          	auipc	ra,0x3
   103f8:	33c080e7          	jalr	828(ra) # 13730 <__call_exitprocs>
   103fc:	000257b7          	lui	a5,0x25
   10400:	9407b503          	ld	a0,-1728(a5) # 24940 <_global_impure_ptr>
   10404:	05853783          	ld	a5,88(a0)
   10408:	00078463          	beqz	a5,10410 <exit+0x30>
   1040c:	000780e7          	jalr	a5
   10410:	00040513          	mv	a0,s0
   10414:	0000f097          	auipc	ra,0xf
   10418:	7e4080e7          	jalr	2020(ra) # 1fbf8 <_exit>

000000000001041c <__libc_init_array>:
   1041c:	fe010113          	addi	sp,sp,-32
   10420:	00813823          	sd	s0,16(sp)
   10424:	01213023          	sd	s2,0(sp)
   10428:	00023437          	lui	s0,0x23
   1042c:	00023937          	lui	s2,0x23
   10430:	7f440793          	addi	a5,s0,2036 # 237f4 <__preinit_array_end>
   10434:	7f490913          	addi	s2,s2,2036 # 237f4 <__preinit_array_end>
   10438:	40f90933          	sub	s2,s2,a5
   1043c:	00113c23          	sd	ra,24(sp)
   10440:	00913423          	sd	s1,8(sp)
   10444:	40395913          	srai	s2,s2,0x3
   10448:	02090063          	beqz	s2,10468 <__libc_init_array+0x4c>
   1044c:	7f440413          	addi	s0,s0,2036
   10450:	00000493          	li	s1,0
   10454:	00043783          	ld	a5,0(s0)
   10458:	00148493          	addi	s1,s1,1
   1045c:	00840413          	addi	s0,s0,8
   10460:	000780e7          	jalr	a5
   10464:	fe9918e3          	bne	s2,s1,10454 <__libc_init_array+0x38>
   10468:	00023437          	lui	s0,0x23
   1046c:	00024937          	lui	s2,0x24
   10470:	7f840793          	addi	a5,s0,2040 # 237f8 <__init_array_start>
   10474:	80890913          	addi	s2,s2,-2040 # 23808 <__do_global_dtors_aux_fini_array_entry>
   10478:	40f90933          	sub	s2,s2,a5
   1047c:	40395913          	srai	s2,s2,0x3
   10480:	02090063          	beqz	s2,104a0 <__libc_init_array+0x84>
   10484:	7f840413          	addi	s0,s0,2040
   10488:	00000493          	li	s1,0
   1048c:	00043783          	ld	a5,0(s0)
   10490:	00148493          	addi	s1,s1,1
   10494:	00840413          	addi	s0,s0,8
   10498:	000780e7          	jalr	a5
   1049c:	fe9918e3          	bne	s2,s1,1048c <__libc_init_array+0x70>
   104a0:	01813083          	ld	ra,24(sp)
   104a4:	01013403          	ld	s0,16(sp)
   104a8:	00813483          	ld	s1,8(sp)
   104ac:	00013903          	ld	s2,0(sp)
   104b0:	02010113          	addi	sp,sp,32
   104b4:	00008067          	ret

00000000000104b8 <memset>:
   104b8:	00f00313          	li	t1,15
   104bc:	00050713          	mv	a4,a0
   104c0:	02c37a63          	bgeu	t1,a2,104f4 <memset+0x3c>
   104c4:	00f77793          	andi	a5,a4,15
   104c8:	0a079063          	bnez	a5,10568 <memset+0xb0>
   104cc:	06059e63          	bnez	a1,10548 <memset+0x90>
   104d0:	ff067693          	andi	a3,a2,-16
   104d4:	00f67613          	andi	a2,a2,15
   104d8:	00e686b3          	add	a3,a3,a4
   104dc:	00b73023          	sd	a1,0(a4)
   104e0:	00b73423          	sd	a1,8(a4)
   104e4:	01070713          	addi	a4,a4,16
   104e8:	fed76ae3          	bltu	a4,a3,104dc <memset+0x24>
   104ec:	00061463          	bnez	a2,104f4 <memset+0x3c>
   104f0:	00008067          	ret
   104f4:	40c306b3          	sub	a3,t1,a2
   104f8:	00269693          	slli	a3,a3,0x2
   104fc:	00000297          	auipc	t0,0x0
   10500:	005686b3          	add	a3,a3,t0
   10504:	00c68067          	jr	12(a3)
   10508:	00b70723          	sb	a1,14(a4)
   1050c:	00b706a3          	sb	a1,13(a4)
   10510:	00b70623          	sb	a1,12(a4)
   10514:	00b705a3          	sb	a1,11(a4)
   10518:	00b70523          	sb	a1,10(a4)
   1051c:	00b704a3          	sb	a1,9(a4)
   10520:	00b70423          	sb	a1,8(a4)
   10524:	00b703a3          	sb	a1,7(a4)
   10528:	00b70323          	sb	a1,6(a4)
   1052c:	00b702a3          	sb	a1,5(a4)
   10530:	00b70223          	sb	a1,4(a4)
   10534:	00b701a3          	sb	a1,3(a4)
   10538:	00b70123          	sb	a1,2(a4)
   1053c:	00b700a3          	sb	a1,1(a4)
   10540:	00b70023          	sb	a1,0(a4)
   10544:	00008067          	ret
   10548:	0ff5f593          	andi	a1,a1,255
   1054c:	00859693          	slli	a3,a1,0x8
   10550:	00d5e5b3          	or	a1,a1,a3
   10554:	01059693          	slli	a3,a1,0x10
   10558:	00d5e5b3          	or	a1,a1,a3
   1055c:	02059693          	slli	a3,a1,0x20
   10560:	00d5e5b3          	or	a1,a1,a3
   10564:	f6dff06f          	j	104d0 <memset+0x18>
   10568:	00279693          	slli	a3,a5,0x2
   1056c:	00000297          	auipc	t0,0x0
   10570:	005686b3          	add	a3,a3,t0
   10574:	00008293          	mv	t0,ra
   10578:	f98680e7          	jalr	-104(a3)
   1057c:	00028093          	mv	ra,t0
   10580:	ff078793          	addi	a5,a5,-16
   10584:	40f70733          	sub	a4,a4,a5
   10588:	00f60633          	add	a2,a2,a5
   1058c:	f6c374e3          	bgeu	t1,a2,104f4 <memset+0x3c>
   10590:	f3dff06f          	j	104cc <memset+0x14>

0000000000010594 <_printf_r>:
   10594:	fb010113          	addi	sp,sp,-80
   10598:	02c13023          	sd	a2,32(sp)
   1059c:	02d13423          	sd	a3,40(sp)
   105a0:	02e13823          	sd	a4,48(sp)
   105a4:	02f13c23          	sd	a5,56(sp)
   105a8:	05013023          	sd	a6,64(sp)
   105ac:	05113423          	sd	a7,72(sp)
   105b0:	00058613          	mv	a2,a1
   105b4:	01053583          	ld	a1,16(a0)
   105b8:	02010693          	addi	a3,sp,32
   105bc:	00113c23          	sd	ra,24(sp)
   105c0:	00d13423          	sd	a3,8(sp)
   105c4:	00000097          	auipc	ra,0x0
   105c8:	5d4080e7          	jalr	1492(ra) # 10b98 <_vfprintf_r>
   105cc:	01813083          	ld	ra,24(sp)
   105d0:	05010113          	addi	sp,sp,80
   105d4:	00008067          	ret

00000000000105d8 <printf>:
   105d8:	00025337          	lui	t1,0x25
   105dc:	95833303          	ld	t1,-1704(t1) # 24958 <_impure_ptr>
   105e0:	fa010113          	addi	sp,sp,-96
   105e4:	02c13823          	sd	a2,48(sp)
   105e8:	02d13c23          	sd	a3,56(sp)
   105ec:	02b13423          	sd	a1,40(sp)
   105f0:	04e13023          	sd	a4,64(sp)
   105f4:	04f13423          	sd	a5,72(sp)
   105f8:	05013823          	sd	a6,80(sp)
   105fc:	05113c23          	sd	a7,88(sp)
   10600:	01033583          	ld	a1,16(t1)
   10604:	02810693          	addi	a3,sp,40
   10608:	00050613          	mv	a2,a0
   1060c:	00030513          	mv	a0,t1
   10610:	00113c23          	sd	ra,24(sp)
   10614:	00d13423          	sd	a3,8(sp)
   10618:	00000097          	auipc	ra,0x0
   1061c:	580080e7          	jalr	1408(ra) # 10b98 <_vfprintf_r>
   10620:	01813083          	ld	ra,24(sp)
   10624:	06010113          	addi	sp,sp,96
   10628:	00008067          	ret

000000000001062c <_putchar_r>:
   1062c:	01053603          	ld	a2,16(a0)
   10630:	00000317          	auipc	t1,0x0
   10634:	02430067          	jr	36(t1) # 10654 <_putc_r>

0000000000010638 <putchar>:
   10638:	000257b7          	lui	a5,0x25
   1063c:	9587b783          	ld	a5,-1704(a5) # 24958 <_impure_ptr>
   10640:	00050593          	mv	a1,a0
   10644:	0107b603          	ld	a2,16(a5)
   10648:	00078513          	mv	a0,a5
   1064c:	00000317          	auipc	t1,0x0
   10650:	00830067          	jr	8(t1) # 10654 <_putc_r>

0000000000010654 <_putc_r>:
   10654:	fe010113          	addi	sp,sp,-32
   10658:	01213823          	sd	s2,16(sp)
   1065c:	00113c23          	sd	ra,24(sp)
   10660:	00050913          	mv	s2,a0
   10664:	00050663          	beqz	a0,10670 <_putc_r+0x1c>
   10668:	05052783          	lw	a5,80(a0)
   1066c:	04078a63          	beqz	a5,106c0 <_putc_r+0x6c>
   10670:	00c62783          	lw	a5,12(a2)
   10674:	fff7879b          	addiw	a5,a5,-1
   10678:	00f62623          	sw	a5,12(a2)
   1067c:	02079693          	slli	a3,a5,0x20
   10680:	0007871b          	sext.w	a4,a5
   10684:	0006dc63          	bgez	a3,1069c <_putc_r+0x48>
   10688:	02862783          	lw	a5,40(a2)
   1068c:	04f74863          	blt	a4,a5,106dc <_putc_r+0x88>
   10690:	0ff5f793          	andi	a5,a1,255
   10694:	00a00713          	li	a4,10
   10698:	04e78263          	beq	a5,a4,106dc <_putc_r+0x88>
   1069c:	00063783          	ld	a5,0(a2)
   106a0:	0ff5f513          	andi	a0,a1,255
   106a4:	00178713          	addi	a4,a5,1
   106a8:	00e63023          	sd	a4,0(a2)
   106ac:	00b78023          	sb	a1,0(a5)
   106b0:	01813083          	ld	ra,24(sp)
   106b4:	01013903          	ld	s2,16(sp)
   106b8:	02010113          	addi	sp,sp,32
   106bc:	00008067          	ret
   106c0:	00c13423          	sd	a2,8(sp)
   106c4:	00b13023          	sd	a1,0(sp)
   106c8:	00003097          	auipc	ra,0x3
   106cc:	7d8080e7          	jalr	2008(ra) # 13ea0 <__sinit>
   106d0:	00813603          	ld	a2,8(sp)
   106d4:	00013583          	ld	a1,0(sp)
   106d8:	f99ff06f          	j	10670 <_putc_r+0x1c>
   106dc:	01813083          	ld	ra,24(sp)
   106e0:	00090513          	mv	a0,s2
   106e4:	01013903          	ld	s2,16(sp)
   106e8:	02010113          	addi	sp,sp,32
   106ec:	00003317          	auipc	t1,0x3
   106f0:	d2830067          	jr	-728(t1) # 13414 <__swbuf_r>

00000000000106f4 <putc>:
   106f4:	fe010113          	addi	sp,sp,-32
   106f8:	000257b7          	lui	a5,0x25
   106fc:	01213023          	sd	s2,0(sp)
   10700:	9587b903          	ld	s2,-1704(a5) # 24958 <_impure_ptr>
   10704:	00813823          	sd	s0,16(sp)
   10708:	00913423          	sd	s1,8(sp)
   1070c:	00113c23          	sd	ra,24(sp)
   10710:	00050493          	mv	s1,a0
   10714:	00058413          	mv	s0,a1
   10718:	00090663          	beqz	s2,10724 <putc+0x30>
   1071c:	05092783          	lw	a5,80(s2)
   10720:	04078e63          	beqz	a5,1077c <putc+0x88>
   10724:	00c42783          	lw	a5,12(s0)
   10728:	fff7879b          	addiw	a5,a5,-1
   1072c:	00f42623          	sw	a5,12(s0)
   10730:	02079693          	slli	a3,a5,0x20
   10734:	0007871b          	sext.w	a4,a5
   10738:	0006dc63          	bgez	a3,10750 <putc+0x5c>
   1073c:	02842783          	lw	a5,40(s0)
   10740:	04f74663          	blt	a4,a5,1078c <putc+0x98>
   10744:	0ff4f793          	andi	a5,s1,255
   10748:	00a00713          	li	a4,10
   1074c:	04e78063          	beq	a5,a4,1078c <putc+0x98>
   10750:	00043783          	ld	a5,0(s0)
   10754:	0ff4f513          	andi	a0,s1,255
   10758:	00178713          	addi	a4,a5,1
   1075c:	00e43023          	sd	a4,0(s0)
   10760:	00978023          	sb	s1,0(a5)
   10764:	01813083          	ld	ra,24(sp)
   10768:	01013403          	ld	s0,16(sp)
   1076c:	00813483          	ld	s1,8(sp)
   10770:	00013903          	ld	s2,0(sp)
   10774:	02010113          	addi	sp,sp,32
   10778:	00008067          	ret
   1077c:	00090513          	mv	a0,s2
   10780:	00003097          	auipc	ra,0x3
   10784:	720080e7          	jalr	1824(ra) # 13ea0 <__sinit>
   10788:	f9dff06f          	j	10724 <putc+0x30>
   1078c:	00040613          	mv	a2,s0
   10790:	01013403          	ld	s0,16(sp)
   10794:	01813083          	ld	ra,24(sp)
   10798:	00048593          	mv	a1,s1
   1079c:	00090513          	mv	a0,s2
   107a0:	00813483          	ld	s1,8(sp)
   107a4:	00013903          	ld	s2,0(sp)
   107a8:	02010113          	addi	sp,sp,32
   107ac:	00003317          	auipc	t1,0x3
   107b0:	c6830067          	jr	-920(t1) # 13414 <__swbuf_r>

00000000000107b4 <_puts_r>:
   107b4:	f9010113          	addi	sp,sp,-112
   107b8:	06813023          	sd	s0,96(sp)
   107bc:	00050413          	mv	s0,a0
   107c0:	00058513          	mv	a0,a1
   107c4:	04913c23          	sd	s1,88(sp)
   107c8:	06113423          	sd	ra,104(sp)
   107cc:	00058493          	mv	s1,a1
   107d0:	00000097          	auipc	ra,0x0
   107d4:	0d4080e7          	jalr	212(ra) # 108a4 <strlen>
   107d8:	000227b7          	lui	a5,0x22
   107dc:	a7078793          	addi	a5,a5,-1424 # 21a70 <__clzdi2+0x6c>
   107e0:	04f13023          	sd	a5,64(sp)
   107e4:	00100793          	li	a5,1
   107e8:	04f13423          	sd	a5,72(sp)
   107ec:	05042703          	lw	a4,80(s0)
   107f0:	03010793          	addi	a5,sp,48
   107f4:	00150693          	addi	a3,a0,1
   107f8:	00f13c23          	sd	a5,24(sp)
   107fc:	00200793          	li	a5,2
   10800:	02913823          	sd	s1,48(sp)
   10804:	02a13c23          	sd	a0,56(sp)
   10808:	02d13423          	sd	a3,40(sp)
   1080c:	02f12023          	sw	a5,32(sp)
   10810:	01043583          	ld	a1,16(s0)
   10814:	04070e63          	beqz	a4,10870 <_puts_r+0xbc>
   10818:	01059783          	lh	a5,16(a1)
   1081c:	03279713          	slli	a4,a5,0x32
   10820:	02074263          	bltz	a4,10844 <_puts_r+0x90>
   10824:	0ac5a703          	lw	a4,172(a1)
   10828:	000026b7          	lui	a3,0x2
   1082c:	00d7e7b3          	or	a5,a5,a3
   10830:	ffffe6b7          	lui	a3,0xffffe
   10834:	fff68693          	addi	a3,a3,-1 # ffffffffffffdfff <__BSS_END__+0xfffffffffffd95f7>
   10838:	00d77733          	and	a4,a4,a3
   1083c:	00f59823          	sh	a5,16(a1)
   10840:	0ae5a623          	sw	a4,172(a1)
   10844:	01810613          	addi	a2,sp,24
   10848:	00040513          	mv	a0,s0
   1084c:	00004097          	auipc	ra,0x4
   10850:	ba0080e7          	jalr	-1120(ra) # 143ec <__sfvwrite_r>
   10854:	02051a63          	bnez	a0,10888 <_puts_r+0xd4>
   10858:	00a00513          	li	a0,10
   1085c:	06813083          	ld	ra,104(sp)
   10860:	06013403          	ld	s0,96(sp)
   10864:	05813483          	ld	s1,88(sp)
   10868:	07010113          	addi	sp,sp,112
   1086c:	00008067          	ret
   10870:	00040513          	mv	a0,s0
   10874:	00b13423          	sd	a1,8(sp)
   10878:	00003097          	auipc	ra,0x3
   1087c:	628080e7          	jalr	1576(ra) # 13ea0 <__sinit>
   10880:	00813583          	ld	a1,8(sp)
   10884:	f95ff06f          	j	10818 <_puts_r+0x64>
   10888:	fff00513          	li	a0,-1
   1088c:	fd1ff06f          	j	1085c <_puts_r+0xa8>

0000000000010890 <puts>:
   10890:	000257b7          	lui	a5,0x25
   10894:	00050593          	mv	a1,a0
   10898:	9587b503          	ld	a0,-1704(a5) # 24958 <_impure_ptr>
   1089c:	00000317          	auipc	t1,0x0
   108a0:	f1830067          	jr	-232(t1) # 107b4 <_puts_r>

00000000000108a4 <strlen>:
   108a4:	00757793          	andi	a5,a0,7
   108a8:	00050713          	mv	a4,a0
   108ac:	06079c63          	bnez	a5,10924 <strlen+0x80>
   108b0:	000257b7          	lui	a5,0x25
   108b4:	9107b683          	ld	a3,-1776(a5) # 24910 <__SDATA_BEGIN__>
   108b8:	fff00593          	li	a1,-1
   108bc:	00073603          	ld	a2,0(a4)
   108c0:	00870713          	addi	a4,a4,8
   108c4:	00d677b3          	and	a5,a2,a3
   108c8:	00d787b3          	add	a5,a5,a3
   108cc:	00c7e7b3          	or	a5,a5,a2
   108d0:	00d7e7b3          	or	a5,a5,a3
   108d4:	feb784e3          	beq	a5,a1,108bc <strlen+0x18>
   108d8:	ff874683          	lbu	a3,-8(a4)
   108dc:	40a707b3          	sub	a5,a4,a0
   108e0:	06068463          	beqz	a3,10948 <strlen+0xa4>
   108e4:	ff974683          	lbu	a3,-7(a4)
   108e8:	04068c63          	beqz	a3,10940 <strlen+0x9c>
   108ec:	ffa74683          	lbu	a3,-6(a4)
   108f0:	06068463          	beqz	a3,10958 <strlen+0xb4>
   108f4:	ffb74683          	lbu	a3,-5(a4)
   108f8:	04068c63          	beqz	a3,10950 <strlen+0xac>
   108fc:	ffc74683          	lbu	a3,-4(a4)
   10900:	ffd74603          	lbu	a2,-3(a4)
   10904:	ffe74503          	lbu	a0,-2(a4)
   10908:	04068c63          	beqz	a3,10960 <strlen+0xbc>
   1090c:	04060e63          	beqz	a2,10968 <strlen+0xc4>
   10910:	00a03533          	snez	a0,a0
   10914:	00f50533          	add	a0,a0,a5
   10918:	ffe50513          	addi	a0,a0,-2
   1091c:	00008067          	ret
   10920:	f80688e3          	beqz	a3,108b0 <strlen+0xc>
   10924:	00074783          	lbu	a5,0(a4)
   10928:	00170713          	addi	a4,a4,1
   1092c:	00777693          	andi	a3,a4,7
   10930:	fe0798e3          	bnez	a5,10920 <strlen+0x7c>
   10934:	40a70733          	sub	a4,a4,a0
   10938:	fff70513          	addi	a0,a4,-1
   1093c:	00008067          	ret
   10940:	ff978513          	addi	a0,a5,-7
   10944:	00008067          	ret
   10948:	ff878513          	addi	a0,a5,-8
   1094c:	00008067          	ret
   10950:	ffb78513          	addi	a0,a5,-5
   10954:	00008067          	ret
   10958:	ffa78513          	addi	a0,a5,-6
   1095c:	00008067          	ret
   10960:	ffc78513          	addi	a0,a5,-4
   10964:	00008067          	ret
   10968:	ffd78513          	addi	a0,a5,-3
   1096c:	00008067          	ret

0000000000010970 <_strtol_l.isra.0>:
   10970:	fe010113          	addi	sp,sp,-32
   10974:	00022837          	lui	a6,0x22
   10978:	00813c23          	sd	s0,24(sp)
   1097c:	00913823          	sd	s1,16(sp)
   10980:	01213423          	sd	s2,8(sp)
   10984:	00050393          	mv	t2,a0
   10988:	00058313          	mv	t1,a1
   1098c:	ca180813          	addi	a6,a6,-863 # 21ca1 <_ctype_+0x1>
   10990:	00034783          	lbu	a5,0(t1)
   10994:	00030893          	mv	a7,t1
   10998:	00130313          	addi	t1,t1,1
   1099c:	00f80733          	add	a4,a6,a5
   109a0:	00074703          	lbu	a4,0(a4)
   109a4:	00877713          	andi	a4,a4,8
   109a8:	fe0714e3          	bnez	a4,10990 <_strtol_l.isra.0+0x20>
   109ac:	02d00713          	li	a4,45
   109b0:	12e78863          	beq	a5,a4,10ae0 <_strtol_l.isra.0+0x170>
   109b4:	02b00713          	li	a4,43
   109b8:	0ce78463          	beq	a5,a4,10a80 <_strtol_l.isra.0+0x110>
   109bc:	fff00493          	li	s1,-1
   109c0:	0007879b          	sext.w	a5,a5
   109c4:	0014d493          	srli	s1,s1,0x1
   109c8:	00000913          	li	s2,0
   109cc:	0c068663          	beqz	a3,10a98 <_strtol_l.isra.0+0x128>
   109d0:	01000713          	li	a4,16
   109d4:	00068413          	mv	s0,a3
   109d8:	12e68463          	beq	a3,a4,10b00 <_strtol_l.isra.0+0x190>
   109dc:	0284f2b3          	remu	t0,s1,s0
   109e0:	00900e13          	li	t3,9
   109e4:	fd07871b          	addiw	a4,a5,-48
   109e8:	00000893          	li	a7,0
   109ec:	00000513          	li	a0,0
   109f0:	01900f93          	li	t6,25
   109f4:	fff00e93          	li	t4,-1
   109f8:	0007881b          	sext.w	a6,a5
   109fc:	0284df33          	divu	t5,s1,s0
   10a00:	0002829b          	sext.w	t0,t0
   10a04:	02ee6e63          	bltu	t3,a4,10a40 <_strtol_l.isra.0+0xd0>
   10a08:	00070793          	mv	a5,a4
   10a0c:	04d7d263          	bge	a5,a3,10a50 <_strtol_l.isra.0+0xe0>
   10a10:	01d88e63          	beq	a7,t4,10a2c <_strtol_l.isra.0+0xbc>
   10a14:	fff00893          	li	a7,-1
   10a18:	00af6a63          	bltu	t5,a0,10a2c <_strtol_l.isra.0+0xbc>
   10a1c:	0aaf0063          	beq	t5,a0,10abc <_strtol_l.isra.0+0x14c>
   10a20:	00100893          	li	a7,1
   10a24:	02850533          	mul	a0,a0,s0
   10a28:	00a78533          	add	a0,a5,a0
   10a2c:	00034783          	lbu	a5,0(t1)
   10a30:	00130313          	addi	t1,t1,1
   10a34:	fd07871b          	addiw	a4,a5,-48
   10a38:	0007881b          	sext.w	a6,a5
   10a3c:	fcee76e3          	bgeu	t3,a4,10a08 <_strtol_l.isra.0+0x98>
   10a40:	fbf8071b          	addiw	a4,a6,-65
   10a44:	06efe463          	bltu	t6,a4,10aac <_strtol_l.isra.0+0x13c>
   10a48:	fc97879b          	addiw	a5,a5,-55
   10a4c:	fcd7c2e3          	blt	a5,a3,10a10 <_strtol_l.isra.0+0xa0>
   10a50:	fff00793          	li	a5,-1
   10a54:	06f88863          	beq	a7,a5,10ac4 <_strtol_l.isra.0+0x154>
   10a58:	00090463          	beqz	s2,10a60 <_strtol_l.isra.0+0xf0>
   10a5c:	40a00533          	neg	a0,a0
   10a60:	00060663          	beqz	a2,10a6c <_strtol_l.isra.0+0xfc>
   10a64:	08089a63          	bnez	a7,10af8 <_strtol_l.isra.0+0x188>
   10a68:	00b63023          	sd	a1,0(a2)
   10a6c:	01813403          	ld	s0,24(sp)
   10a70:	01013483          	ld	s1,16(sp)
   10a74:	00813903          	ld	s2,8(sp)
   10a78:	02010113          	addi	sp,sp,32
   10a7c:	00008067          	ret
   10a80:	fff00493          	li	s1,-1
   10a84:	00034783          	lbu	a5,0(t1)
   10a88:	0014d493          	srli	s1,s1,0x1
   10a8c:	00288313          	addi	t1,a7,2
   10a90:	00000913          	li	s2,0
   10a94:	f2069ee3          	bnez	a3,109d0 <_strtol_l.isra.0+0x60>
   10a98:	03000713          	li	a4,48
   10a9c:	08e78c63          	beq	a5,a4,10b34 <_strtol_l.isra.0+0x1c4>
   10aa0:	00a00413          	li	s0,10
   10aa4:	00a00693          	li	a3,10
   10aa8:	f35ff06f          	j	109dc <_strtol_l.isra.0+0x6c>
   10aac:	f9f8081b          	addiw	a6,a6,-97
   10ab0:	fb0fe0e3          	bltu	t6,a6,10a50 <_strtol_l.isra.0+0xe0>
   10ab4:	fa97879b          	addiw	a5,a5,-87
   10ab8:	f55ff06f          	j	10a0c <_strtol_l.isra.0+0x9c>
   10abc:	f6f2c8e3          	blt	t0,a5,10a2c <_strtol_l.isra.0+0xbc>
   10ac0:	f61ff06f          	j	10a20 <_strtol_l.isra.0+0xb0>
   10ac4:	02200793          	li	a5,34
   10ac8:	00f3a023          	sw	a5,0(t2)
   10acc:	00048513          	mv	a0,s1
   10ad0:	f8060ee3          	beqz	a2,10a6c <_strtol_l.isra.0+0xfc>
   10ad4:	fff30593          	addi	a1,t1,-1
   10ad8:	00048513          	mv	a0,s1
   10adc:	f8dff06f          	j	10a68 <_strtol_l.isra.0+0xf8>
   10ae0:	fff00493          	li	s1,-1
   10ae4:	00034783          	lbu	a5,0(t1)
   10ae8:	03f49493          	slli	s1,s1,0x3f
   10aec:	00288313          	addi	t1,a7,2
   10af0:	00100913          	li	s2,1
   10af4:	ed9ff06f          	j	109cc <_strtol_l.isra.0+0x5c>
   10af8:	00050493          	mv	s1,a0
   10afc:	fd9ff06f          	j	10ad4 <_strtol_l.isra.0+0x164>
   10b00:	03000713          	li	a4,48
   10b04:	00e79a63          	bne	a5,a4,10b18 <_strtol_l.isra.0+0x1a8>
   10b08:	00034703          	lbu	a4,0(t1)
   10b0c:	05800513          	li	a0,88
   10b10:	0df77713          	andi	a4,a4,223
   10b14:	00a70663          	beq	a4,a0,10b20 <_strtol_l.isra.0+0x1b0>
   10b18:	01000413          	li	s0,16
   10b1c:	ec1ff06f          	j	109dc <_strtol_l.isra.0+0x6c>
   10b20:	00134783          	lbu	a5,1(t1)
   10b24:	01000413          	li	s0,16
   10b28:	00230313          	addi	t1,t1,2
   10b2c:	01000693          	li	a3,16
   10b30:	eadff06f          	j	109dc <_strtol_l.isra.0+0x6c>
   10b34:	00034703          	lbu	a4,0(t1)
   10b38:	05800693          	li	a3,88
   10b3c:	0df77713          	andi	a4,a4,223
   10b40:	fed700e3          	beq	a4,a3,10b20 <_strtol_l.isra.0+0x1b0>
   10b44:	00800413          	li	s0,8
   10b48:	00800693          	li	a3,8
   10b4c:	e91ff06f          	j	109dc <_strtol_l.isra.0+0x6c>

0000000000010b50 <_strtol_r>:
   10b50:	00000317          	auipc	t1,0x0
   10b54:	e2030067          	jr	-480(t1) # 10970 <_strtol_l.isra.0>

0000000000010b58 <strtol_l>:
   10b58:	00025737          	lui	a4,0x25
   10b5c:	00050793          	mv	a5,a0
   10b60:	95873503          	ld	a0,-1704(a4) # 24958 <_impure_ptr>
   10b64:	00060693          	mv	a3,a2
   10b68:	00058613          	mv	a2,a1
   10b6c:	00078593          	mv	a1,a5
   10b70:	00000317          	auipc	t1,0x0
   10b74:	e0030067          	jr	-512(t1) # 10970 <_strtol_l.isra.0>

0000000000010b78 <strtol>:
   10b78:	00025737          	lui	a4,0x25
   10b7c:	00050793          	mv	a5,a0
   10b80:	95873503          	ld	a0,-1704(a4) # 24958 <_impure_ptr>
   10b84:	00060693          	mv	a3,a2
   10b88:	00058613          	mv	a2,a1
   10b8c:	00078593          	mv	a1,a5
   10b90:	00000317          	auipc	t1,0x0
   10b94:	de030067          	jr	-544(t1) # 10970 <_strtol_l.isra.0>

0000000000010b98 <_vfprintf_r>:
   10b98:	d8010113          	addi	sp,sp,-640
   10b9c:	26113c23          	sd	ra,632(sp)
   10ba0:	25613023          	sd	s6,576(sp)
   10ba4:	23713c23          	sd	s7,568(sp)
   10ba8:	23813823          	sd	s8,560(sp)
   10bac:	00058b93          	mv	s7,a1
   10bb0:	00060b13          	mv	s6,a2
   10bb4:	00d13423          	sd	a3,8(sp)
   10bb8:	26813823          	sd	s0,624(sp)
   10bbc:	26913423          	sd	s1,616(sp)
   10bc0:	27213023          	sd	s2,608(sp)
   10bc4:	25313c23          	sd	s3,600(sp)
   10bc8:	25413823          	sd	s4,592(sp)
   10bcc:	25513423          	sd	s5,584(sp)
   10bd0:	23913423          	sd	s9,552(sp)
   10bd4:	23a13023          	sd	s10,544(sp)
   10bd8:	21b13c23          	sd	s11,536(sp)
   10bdc:	00050c13          	mv	s8,a0
   10be0:	00007097          	auipc	ra,0x7
   10be4:	bdc080e7          	jalr	-1060(ra) # 177bc <_localeconv_r>
   10be8:	00053783          	ld	a5,0(a0)
   10bec:	00078513          	mv	a0,a5
   10bf0:	04f13023          	sd	a5,64(sp)
   10bf4:	00000097          	auipc	ra,0x0
   10bf8:	cb0080e7          	jalr	-848(ra) # 108a4 <strlen>
   10bfc:	02a13c23          	sd	a0,56(sp)
   10c00:	10013023          	sd	zero,256(sp)
   10c04:	10013423          	sd	zero,264(sp)
   10c08:	000c0663          	beqz	s8,10c14 <_vfprintf_r+0x7c>
   10c0c:	050c2783          	lw	a5,80(s8)
   10c10:	7a078e63          	beqz	a5,113cc <_vfprintf_r+0x834>
   10c14:	010b9703          	lh	a4,16(s7)
   10c18:	03071793          	slli	a5,a4,0x30
   10c1c:	03271693          	slli	a3,a4,0x32
   10c20:	0307d793          	srli	a5,a5,0x30
   10c24:	0206ca63          	bltz	a3,10c58 <_vfprintf_r+0xc0>
   10c28:	000027b7          	lui	a5,0x2
   10c2c:	0acba683          	lw	a3,172(s7)
   10c30:	00f767b3          	or	a5,a4,a5
   10c34:	0107979b          	slliw	a5,a5,0x10
   10c38:	ffffe737          	lui	a4,0xffffe
   10c3c:	4107d79b          	sraiw	a5,a5,0x10
   10c40:	fff70713          	addi	a4,a4,-1 # ffffffffffffdfff <__BSS_END__+0xfffffffffffd95f7>
   10c44:	00e6f733          	and	a4,a3,a4
   10c48:	00fb9823          	sh	a5,16(s7)
   10c4c:	03079793          	slli	a5,a5,0x30
   10c50:	0aeba623          	sw	a4,172(s7)
   10c54:	0307d793          	srli	a5,a5,0x30
   10c58:	0087f713          	andi	a4,a5,8
   10c5c:	32070e63          	beqz	a4,10f98 <_vfprintf_r+0x400>
   10c60:	018bb703          	ld	a4,24(s7)
   10c64:	32070a63          	beqz	a4,10f98 <_vfprintf_r+0x400>
   10c68:	01a7f793          	andi	a5,a5,26
   10c6c:	00a00713          	li	a4,10
   10c70:	34e78863          	beq	a5,a4,10fc0 <_vfprintf_r+0x428>
   10c74:	000227b7          	lui	a5,0x22
   10c78:	c987b783          	ld	a5,-872(a5) # 21c98 <zeroes.4519+0x40>
   10c7c:	000b0d13          	mv	s10,s6
   10c80:	12013023          	sd	zero,288(sp)
   10c84:	08f13823          	sd	a5,144(sp)
   10c88:	000227b7          	lui	a5,0x22
   10c8c:	c787b783          	ld	a5,-904(a5) # 21c78 <zeroes.4519+0x20>
   10c90:	10012c23          	sw	zero,280(sp)
   10c94:	02013023          	sd	zero,32(sp)
   10c98:	08f13023          	sd	a5,128(sp)
   10c9c:	000227b7          	lui	a5,0x22
   10ca0:	c887b783          	ld	a5,-888(a5) # 21c88 <zeroes.4519+0x30>
   10ca4:	04013423          	sd	zero,72(sp)
   10ca8:	04013823          	sd	zero,80(sp)
   10cac:	08f13423          	sd	a5,136(sp)
   10cb0:	19010793          	addi	a5,sp,400
   10cb4:	10f13823          	sd	a5,272(sp)
   10cb8:	00078313          	mv	t1,a5
   10cbc:	000d4783          	lbu	a5,0(s10)
   10cc0:	06013023          	sd	zero,96(sp)
   10cc4:	06013c23          	sd	zero,120(sp)
   10cc8:	04013c23          	sd	zero,88(sp)
   10ccc:	00013023          	sd	zero,0(sp)
   10cd0:	24078e63          	beqz	a5,10f2c <_vfprintf_r+0x394>
   10cd4:	000d0413          	mv	s0,s10
   10cd8:	02500713          	li	a4,37
   10cdc:	30e78663          	beq	a5,a4,10fe8 <_vfprintf_r+0x450>
   10ce0:	00144783          	lbu	a5,1(s0)
   10ce4:	00140413          	addi	s0,s0,1
   10ce8:	fe079ae3          	bnez	a5,10cdc <_vfprintf_r+0x144>
   10cec:	41a404bb          	subw	s1,s0,s10
   10cf0:	22048e63          	beqz	s1,10f2c <_vfprintf_r+0x394>
   10cf4:	12013703          	ld	a4,288(sp)
   10cf8:	11812783          	lw	a5,280(sp)
   10cfc:	01a33023          	sd	s10,0(t1)
   10d00:	00970733          	add	a4,a4,s1
   10d04:	0017879b          	addiw	a5,a5,1
   10d08:	00933423          	sd	s1,8(t1)
   10d0c:	12e13023          	sd	a4,288(sp)
   10d10:	10f12c23          	sw	a5,280(sp)
   10d14:	0007871b          	sext.w	a4,a5
   10d18:	00700793          	li	a5,7
   10d1c:	01030313          	addi	t1,t1,16
   10d20:	2ce7cc63          	blt	a5,a4,10ff8 <_vfprintf_r+0x460>
   10d24:	00013703          	ld	a4,0(sp)
   10d28:	00044783          	lbu	a5,0(s0)
   10d2c:	0097073b          	addw	a4,a4,s1
   10d30:	00e13023          	sd	a4,0(sp)
   10d34:	1e078c63          	beqz	a5,10f2c <_vfprintf_r+0x394>
   10d38:	000227b7          	lui	a5,0x22
   10d3c:	00144e83          	lbu	t4,1(s0)
   10d40:	0c010fa3          	sb	zero,223(sp)
   10d44:	00140413          	addi	s0,s0,1
   10d48:	fff00d93          	li	s11,-1
   10d4c:	00000913          	li	s2,0
   10d50:	00000493          	li	s1,0
   10d54:	05a00993          	li	s3,90
   10d58:	ad878a13          	addi	s4,a5,-1320 # 21ad8 <__clzdi2+0xd4>
   10d5c:	00900b13          	li	s6,9
   10d60:	00030c93          	mv	s9,t1
   10d64:	00140413          	addi	s0,s0,1
   10d68:	000e8a9b          	sext.w	s5,t4
   10d6c:	02a00693          	li	a3,42
   10d70:	fe0a879b          	addiw	a5,s5,-32
   10d74:	0007871b          	sext.w	a4,a5
   10d78:	04e9e863          	bltu	s3,a4,10dc8 <_vfprintf_r+0x230>
   10d7c:	02079793          	slli	a5,a5,0x20
   10d80:	01e7d793          	srli	a5,a5,0x1e
   10d84:	014787b3          	add	a5,a5,s4
   10d88:	0007a783          	lw	a5,0(a5)
   10d8c:	00078067          	jr	a5
   10d90:	00000913          	li	s2,0
   10d94:	00044703          	lbu	a4,0(s0)
   10d98:	0029179b          	slliw	a5,s2,0x2
   10d9c:	012787bb          	addw	a5,a5,s2
   10da0:	fd0a8a9b          	addiw	s5,s5,-48
   10da4:	0017979b          	slliw	a5,a5,0x1
   10da8:	fd07061b          	addiw	a2,a4,-48
   10dac:	00fa893b          	addw	s2,s5,a5
   10db0:	00140413          	addi	s0,s0,1
   10db4:	00070a9b          	sext.w	s5,a4
   10db8:	fccb7ee3          	bgeu	s6,a2,10d94 <_vfprintf_r+0x1fc>
   10dbc:	fe0a879b          	addiw	a5,s5,-32
   10dc0:	0007871b          	sext.w	a4,a5
   10dc4:	fae9fce3          	bgeu	s3,a4,10d7c <_vfprintf_r+0x1e4>
   10dc8:	000c8313          	mv	t1,s9
   10dcc:	160a8063          	beqz	s5,10f2c <_vfprintf_r+0x394>
   10dd0:	13510423          	sb	s5,296(sp)
   10dd4:	0c010fa3          	sb	zero,223(sp)
   10dd8:	00100993          	li	s3,1
   10ddc:	00100a13          	li	s4,1
   10de0:	12810d13          	addi	s10,sp,296
   10de4:	00013823          	sd	zero,16(sp)
   10de8:	00000d93          	li	s11,0
   10dec:	02013823          	sd	zero,48(sp)
   10df0:	02013423          	sd	zero,40(sp)
   10df4:	00013c23          	sd	zero,24(sp)
   10df8:	0024f793          	andi	a5,s1,2
   10dfc:	00078c9b          	sext.w	s9,a5
   10e00:	00078463          	beqz	a5,10e08 <_vfprintf_r+0x270>
   10e04:	0029899b          	addiw	s3,s3,2
   10e08:	0844fb13          	andi	s6,s1,132
   10e0c:	12013783          	ld	a5,288(sp)
   10e10:	000b1663          	bnez	s6,10e1c <_vfprintf_r+0x284>
   10e14:	413906bb          	subw	a3,s2,s3
   10e18:	66d04ee3          	bgtz	a3,11c94 <_vfprintf_r+0x10fc>
   10e1c:	0df14703          	lbu	a4,223(sp)
   10e20:	02070c63          	beqz	a4,10e58 <_vfprintf_r+0x2c0>
   10e24:	11812703          	lw	a4,280(sp)
   10e28:	0df10693          	addi	a3,sp,223
   10e2c:	00d33023          	sd	a3,0(t1)
   10e30:	0017071b          	addiw	a4,a4,1
   10e34:	00100693          	li	a3,1
   10e38:	00178793          	addi	a5,a5,1
   10e3c:	00d33423          	sd	a3,8(t1)
   10e40:	10e12c23          	sw	a4,280(sp)
   10e44:	0007069b          	sext.w	a3,a4
   10e48:	12f13023          	sd	a5,288(sp)
   10e4c:	00700713          	li	a4,7
   10e50:	01030313          	addi	t1,t1,16
   10e54:	4ad74463          	blt	a4,a3,112fc <_vfprintf_r+0x764>
   10e58:	020c8c63          	beqz	s9,10e90 <_vfprintf_r+0x2f8>
   10e5c:	11812703          	lw	a4,280(sp)
   10e60:	0e010693          	addi	a3,sp,224
   10e64:	00d33023          	sd	a3,0(t1)
   10e68:	0017071b          	addiw	a4,a4,1
   10e6c:	00200693          	li	a3,2
   10e70:	00278793          	addi	a5,a5,2
   10e74:	00d33423          	sd	a3,8(t1)
   10e78:	10e12c23          	sw	a4,280(sp)
   10e7c:	0007069b          	sext.w	a3,a4
   10e80:	12f13023          	sd	a5,288(sp)
   10e84:	00700713          	li	a4,7
   10e88:	01030313          	addi	t1,t1,16
   10e8c:	72d744e3          	blt	a4,a3,11db4 <_vfprintf_r+0x121c>
   10e90:	08000713          	li	a4,128
   10e94:	30eb00e3          	beq	s6,a4,11994 <_vfprintf_r+0xdfc>
   10e98:	414d8dbb          	subw	s11,s11,s4
   10e9c:	3db042e3          	bgtz	s11,11a60 <_vfprintf_r+0xec8>
   10ea0:	1004f713          	andi	a4,s1,256
   10ea4:	1c0714e3          	bnez	a4,1186c <_vfprintf_r+0xcd4>
   10ea8:	11812703          	lw	a4,280(sp)
   10eac:	014787b3          	add	a5,a5,s4
   10eb0:	01a33023          	sd	s10,0(t1)
   10eb4:	0017069b          	addiw	a3,a4,1
   10eb8:	00068713          	mv	a4,a3
   10ebc:	01433423          	sd	s4,8(t1)
   10ec0:	10e12c23          	sw	a4,280(sp)
   10ec4:	12f13023          	sd	a5,288(sp)
   10ec8:	00700713          	li	a4,7
   10ecc:	4cd74e63          	blt	a4,a3,113a8 <_vfprintf_r+0x810>
   10ed0:	01030313          	addi	t1,t1,16
   10ed4:	0044f493          	andi	s1,s1,4
   10ed8:	00048663          	beqz	s1,10ee4 <_vfprintf_r+0x34c>
   10edc:	413904bb          	subw	s1,s2,s3
   10ee0:	6e904ce3          	bgtz	s1,11dd8 <_vfprintf_r+0x1240>
   10ee4:	00090713          	mv	a4,s2
   10ee8:	01395463          	bge	s2,s3,10ef0 <_vfprintf_r+0x358>
   10eec:	00098713          	mv	a4,s3
   10ef0:	00013683          	ld	a3,0(sp)
   10ef4:	00d7073b          	addw	a4,a4,a3
   10ef8:	00e13023          	sd	a4,0(sp)
   10efc:	420792e3          	bnez	a5,11b20 <_vfprintf_r+0xf88>
   10f00:	01013783          	ld	a5,16(sp)
   10f04:	10012c23          	sw	zero,280(sp)
   10f08:	00078a63          	beqz	a5,10f1c <_vfprintf_r+0x384>
   10f0c:	01013583          	ld	a1,16(sp)
   10f10:	000c0513          	mv	a0,s8
   10f14:	00003097          	auipc	ra,0x3
   10f18:	194080e7          	jalr	404(ra) # 140a8 <_free_r>
   10f1c:	19010313          	addi	t1,sp,400
   10f20:	00040d13          	mv	s10,s0
   10f24:	000d4783          	lbu	a5,0(s10)
   10f28:	da0796e3          	bnez	a5,10cd4 <_vfprintf_r+0x13c>
   10f2c:	12013783          	ld	a5,288(sp)
   10f30:	00078463          	beqz	a5,10f38 <_vfprintf_r+0x3a0>
   10f34:	2290106f          	j	1295c <_vfprintf_r+0x1dc4>
   10f38:	010bd783          	lhu	a5,16(s7)
   10f3c:	0407f793          	andi	a5,a5,64
   10f40:	00078463          	beqz	a5,10f48 <_vfprintf_r+0x3b0>
   10f44:	0300206f          	j	12f74 <_vfprintf_r+0x23dc>
   10f48:	27813083          	ld	ra,632(sp)
   10f4c:	27013403          	ld	s0,624(sp)
   10f50:	00013503          	ld	a0,0(sp)
   10f54:	26813483          	ld	s1,616(sp)
   10f58:	26013903          	ld	s2,608(sp)
   10f5c:	25813983          	ld	s3,600(sp)
   10f60:	25013a03          	ld	s4,592(sp)
   10f64:	24813a83          	ld	s5,584(sp)
   10f68:	24013b03          	ld	s6,576(sp)
   10f6c:	23813b83          	ld	s7,568(sp)
   10f70:	23013c03          	ld	s8,560(sp)
   10f74:	22813c83          	ld	s9,552(sp)
   10f78:	22013d03          	ld	s10,544(sp)
   10f7c:	21813d83          	ld	s11,536(sp)
   10f80:	28010113          	addi	sp,sp,640
   10f84:	00008067          	ret
   10f88:	0104e493          	ori	s1,s1,16
   10f8c:	00044e83          	lbu	t4,0(s0)
   10f90:	0004849b          	sext.w	s1,s1
   10f94:	dd1ff06f          	j	10d64 <_vfprintf_r+0x1cc>
   10f98:	000b8593          	mv	a1,s7
   10f9c:	000c0513          	mv	a0,s8
   10fa0:	00002097          	auipc	ra,0x2
   10fa4:	624080e7          	jalr	1572(ra) # 135c4 <__swsetup_r>
   10fa8:	00050463          	beqz	a0,10fb0 <_vfprintf_r+0x418>
   10fac:	7c90106f          	j	12f74 <_vfprintf_r+0x23dc>
   10fb0:	010bd783          	lhu	a5,16(s7)
   10fb4:	00a00713          	li	a4,10
   10fb8:	01a7f793          	andi	a5,a5,26
   10fbc:	cae79ce3          	bne	a5,a4,10c74 <_vfprintf_r+0xdc>
   10fc0:	012b9783          	lh	a5,18(s7)
   10fc4:	ca07c8e3          	bltz	a5,10c74 <_vfprintf_r+0xdc>
   10fc8:	00813683          	ld	a3,8(sp)
   10fcc:	000b0613          	mv	a2,s6
   10fd0:	000b8593          	mv	a1,s7
   10fd4:	000c0513          	mv	a0,s8
   10fd8:	00002097          	auipc	ra,0x2
   10fdc:	374080e7          	jalr	884(ra) # 1334c <__sbprintf>
   10fe0:	00a13023          	sd	a0,0(sp)
   10fe4:	f65ff06f          	j	10f48 <_vfprintf_r+0x3b0>
   10fe8:	41a404bb          	subw	s1,s0,s10
   10fec:	d00494e3          	bnez	s1,10cf4 <_vfprintf_r+0x15c>
   10ff0:	00044783          	lbu	a5,0(s0)
   10ff4:	d41ff06f          	j	10d34 <_vfprintf_r+0x19c>
   10ff8:	11010613          	addi	a2,sp,272
   10ffc:	000b8593          	mv	a1,s7
   11000:	000c0513          	mv	a0,s8
   11004:	0000c097          	auipc	ra,0xc
   11008:	c3c080e7          	jalr	-964(ra) # 1cc40 <__sprint_r>
   1100c:	f20516e3          	bnez	a0,10f38 <_vfprintf_r+0x3a0>
   11010:	19010313          	addi	t1,sp,400
   11014:	d11ff06f          	j	10d24 <_vfprintf_r+0x18c>
   11018:	0084f793          	andi	a5,s1,8
   1101c:	000c8313          	mv	t1,s9
   11020:	00078463          	beqz	a5,11028 <_vfprintf_r+0x490>
   11024:	1840106f          	j	121a8 <_vfprintf_r+0x1610>
   11028:	00813783          	ld	a5,8(sp)
   1102c:	01913823          	sd	s9,16(sp)
   11030:	0007b503          	ld	a0,0(a5)
   11034:	00878c93          	addi	s9,a5,8
   11038:	01913423          	sd	s9,8(sp)
   1103c:	00010097          	auipc	ra,0x10
   11040:	71c080e7          	jalr	1820(ra) # 21758 <__extenddftf2>
   11044:	01013303          	ld	t1,16(sp)
   11048:	10a13023          	sd	a0,256(sp)
   1104c:	10b13423          	sd	a1,264(sp)
   11050:	10010513          	addi	a0,sp,256
   11054:	00613823          	sd	t1,16(sp)
   11058:	00006097          	auipc	ra,0x6
   1105c:	700080e7          	jalr	1792(ra) # 17758 <_ldcheck>
   11060:	0ea12423          	sw	a0,232(sp)
   11064:	00200793          	li	a5,2
   11068:	01013303          	ld	t1,16(sp)
   1106c:	00f51463          	bne	a0,a5,11074 <_vfprintf_r+0x4dc>
   11070:	47c0106f          	j	124ec <_vfprintf_r+0x1954>
   11074:	00100793          	li	a5,1
   11078:	00f51463          	bne	a0,a5,11080 <_vfprintf_r+0x4e8>
   1107c:	5740106f          	j	125f0 <_vfprintf_r+0x1a58>
   11080:	06100793          	li	a5,97
   11084:	00fa9463          	bne	s5,a5,1108c <_vfprintf_r+0x4f4>
   11088:	7e10106f          	j	13068 <_vfprintf_r+0x24d0>
   1108c:	04100793          	li	a5,65
   11090:	00fa9463          	bne	s5,a5,11098 <_vfprintf_r+0x500>
   11094:	0e10106f          	j	12974 <_vfprintf_r+0x1ddc>
   11098:	fdfaf713          	andi	a4,s5,-33
   1109c:	fff00793          	li	a5,-1
   110a0:	02e13423          	sd	a4,40(sp)
   110a4:	00fd9463          	bne	s11,a5,110ac <_vfprintf_r+0x514>
   110a8:	0400206f          	j	130e8 <_vfprintf_r+0x2550>
   110ac:	04700793          	li	a5,71
   110b0:	00f71463          	bne	a4,a5,110b8 <_vfprintf_r+0x520>
   110b4:	7d10106f          	j	13084 <_vfprintf_r+0x24ec>
   110b8:	10813a03          	ld	s4,264(sp)
   110bc:	1004e793          	ori	a5,s1,256
   110c0:	02913823          	sd	s1,48(sp)
   110c4:	10013b03          	ld	s6,256(sp)
   110c8:	0007879b          	sext.w	a5,a5
   110cc:	000a5463          	bgez	s4,110d4 <_vfprintf_r+0x53c>
   110d0:	0580206f          	j	13128 <_vfprintf_r+0x2590>
   110d4:	06013423          	sd	zero,104(sp)
   110d8:	00078493          	mv	s1,a5
   110dc:	00013823          	sd	zero,16(sp)
   110e0:	0007071b          	sext.w	a4,a4
   110e4:	04600793          	li	a5,70
   110e8:	00f71463          	bne	a4,a5,110f0 <_vfprintf_r+0x558>
   110ec:	4990106f          	j	12d84 <_vfprintf_r+0x21ec>
   110f0:	02813703          	ld	a4,40(sp)
   110f4:	04500793          	li	a5,69
   110f8:	00613c23          	sd	t1,24(sp)
   110fc:	00f70463          	beq	a4,a5,11104 <_vfprintf_r+0x56c>
   11100:	4010106f          	j	12d00 <_vfprintf_r+0x2168>
   11104:	001d899b          	addiw	s3,s11,1
   11108:	00098713          	mv	a4,s3
   1110c:	0f810893          	addi	a7,sp,248
   11110:	0ec10813          	addi	a6,sp,236
   11114:	0e810793          	addi	a5,sp,232
   11118:	00200693          	li	a3,2
   1111c:	000b0593          	mv	a1,s6
   11120:	000a0613          	mv	a2,s4
   11124:	000c0513          	mv	a0,s8
   11128:	00005097          	auipc	ra,0x5
   1112c:	2d8080e7          	jalr	728(ra) # 16400 <_ldtoa_r>
   11130:	01813303          	ld	t1,24(sp)
   11134:	00050d13          	mv	s10,a0
   11138:	013509b3          	add	s3,a0,s3
   1113c:	00000693          	li	a3,0
   11140:	00000613          	li	a2,0
   11144:	000b0513          	mv	a0,s6
   11148:	000a0593          	mv	a1,s4
   1114c:	00613c23          	sd	t1,24(sp)
   11150:	0000f097          	auipc	ra,0xf
   11154:	450080e7          	jalr	1104(ra) # 205a0 <__eqtf2>
   11158:	01813303          	ld	t1,24(sp)
   1115c:	00098693          	mv	a3,s3
   11160:	02050263          	beqz	a0,11184 <_vfprintf_r+0x5ec>
   11164:	0f813683          	ld	a3,248(sp)
   11168:	0136fe63          	bgeu	a3,s3,11184 <_vfprintf_r+0x5ec>
   1116c:	03000713          	li	a4,48
   11170:	00168793          	addi	a5,a3,1
   11174:	0ef13c23          	sd	a5,248(sp)
   11178:	00e68023          	sb	a4,0(a3)
   1117c:	0f813683          	ld	a3,248(sp)
   11180:	ff36e8e3          	bltu	a3,s3,11170 <_vfprintf_r+0x5d8>
   11184:	41a687bb          	subw	a5,a3,s10
   11188:	02f13023          	sd	a5,32(sp)
   1118c:	0e812703          	lw	a4,232(sp)
   11190:	04700793          	li	a5,71
   11194:	00e13c23          	sd	a4,24(sp)
   11198:	02813703          	ld	a4,40(sp)
   1119c:	00f71463          	bne	a4,a5,111a4 <_vfprintf_r+0x60c>
   111a0:	2710106f          	j	12c10 <_vfprintf_r+0x2078>
   111a4:	02813703          	ld	a4,40(sp)
   111a8:	04600793          	li	a5,70
   111ac:	00f71463          	bne	a4,a5,111b4 <_vfprintf_r+0x61c>
   111b0:	4990106f          	j	12e48 <_vfprintf_r+0x22b0>
   111b4:	01813783          	ld	a5,24(sp)
   111b8:	02813583          	ld	a1,40(sp)
   111bc:	04100613          	li	a2,65
   111c0:	fff7879b          	addiw	a5,a5,-1
   111c4:	0ef12423          	sw	a5,232(sp)
   111c8:	0ffaf713          	andi	a4,s5,255
   111cc:	00000693          	li	a3,0
   111d0:	00c59863          	bne	a1,a2,111e0 <_vfprintf_r+0x648>
   111d4:	00f7071b          	addiw	a4,a4,15
   111d8:	0ff77713          	andi	a4,a4,255
   111dc:	00100693          	li	a3,1
   111e0:	0ee10823          	sb	a4,240(sp)
   111e4:	02b00713          	li	a4,43
   111e8:	0007da63          	bgez	a5,111fc <_vfprintf_r+0x664>
   111ec:	01813703          	ld	a4,24(sp)
   111f0:	00100793          	li	a5,1
   111f4:	40e787bb          	subw	a5,a5,a4
   111f8:	02d00713          	li	a4,45
   111fc:	0ee108a3          	sb	a4,241(sp)
   11200:	00900713          	li	a4,9
   11204:	00f74463          	blt	a4,a5,1120c <_vfprintf_r+0x674>
   11208:	7d10106f          	j	131d8 <_vfprintf_r+0x2640>
   1120c:	0ff10513          	addi	a0,sp,255
   11210:	00050593          	mv	a1,a0
   11214:	00a00693          	li	a3,10
   11218:	06300e13          	li	t3,99
   1121c:	02d7e73b          	remw	a4,a5,a3
   11220:	00058613          	mv	a2,a1
   11224:	00078813          	mv	a6,a5
   11228:	fff58593          	addi	a1,a1,-1
   1122c:	0307071b          	addiw	a4,a4,48
   11230:	fee60fa3          	sb	a4,-1(a2)
   11234:	02d7c7bb          	divw	a5,a5,a3
   11238:	ff0e42e3          	blt	t3,a6,1121c <_vfprintf_r+0x684>
   1123c:	0307879b          	addiw	a5,a5,48
   11240:	0ff7f693          	andi	a3,a5,255
   11244:	fed58fa3          	sb	a3,-1(a1)
   11248:	ffe60793          	addi	a5,a2,-2
   1124c:	00a7e463          	bltu	a5,a0,11254 <_vfprintf_r+0x6bc>
   11250:	0c00206f          	j	13310 <_vfprintf_r+0x2778>
   11254:	0f210713          	addi	a4,sp,242
   11258:	0080006f          	j	11260 <_vfprintf_r+0x6c8>
   1125c:	0007c683          	lbu	a3,0(a5)
   11260:	00d70023          	sb	a3,0(a4)
   11264:	00178793          	addi	a5,a5,1
   11268:	00170713          	addi	a4,a4,1
   1126c:	fea798e3          	bne	a5,a0,1125c <_vfprintf_r+0x6c4>
   11270:	10110793          	addi	a5,sp,257
   11274:	0f210713          	addi	a4,sp,242
   11278:	40c787b3          	sub	a5,a5,a2
   1127c:	00f707b3          	add	a5,a4,a5
   11280:	0f010713          	addi	a4,sp,240
   11284:	40e787bb          	subw	a5,a5,a4
   11288:	04f13823          	sd	a5,80(sp)
   1128c:	05013783          	ld	a5,80(sp)
   11290:	02013683          	ld	a3,32(sp)
   11294:	00100713          	li	a4,1
   11298:	00f68a3b          	addw	s4,a3,a5
   1129c:	000a0793          	mv	a5,s4
   112a0:	00d74463          	blt	a4,a3,112a8 <_vfprintf_r+0x710>
   112a4:	7d90106f          	j	1327c <_vfprintf_r+0x26e4>
   112a8:	03813703          	ld	a4,56(sp)
   112ac:	00e78a3b          	addw	s4,a5,a4
   112b0:	03013783          	ld	a5,48(sp)
   112b4:	fffa4993          	not	s3,s4
   112b8:	43f9d993          	srai	s3,s3,0x3f
   112bc:	bff7f493          	andi	s1,a5,-1025
   112c0:	0004849b          	sext.w	s1,s1
   112c4:	013a79b3          	and	s3,s4,s3
   112c8:	1004e493          	ori	s1,s1,256
   112cc:	0009899b          	sext.w	s3,s3
   112d0:	02013823          	sd	zero,48(sp)
   112d4:	02013423          	sd	zero,40(sp)
   112d8:	00013c23          	sd	zero,24(sp)
   112dc:	06813783          	ld	a5,104(sp)
   112e0:	00079463          	bnez	a5,112e8 <_vfprintf_r+0x750>
   112e4:	1a50106f          	j	12c88 <_vfprintf_r+0x20f0>
   112e8:	02d00793          	li	a5,45
   112ec:	0cf10fa3          	sb	a5,223(sp)
   112f0:	00000d93          	li	s11,0
   112f4:	0019899b          	addiw	s3,s3,1
   112f8:	b01ff06f          	j	10df8 <_vfprintf_r+0x260>
   112fc:	11010613          	addi	a2,sp,272
   11300:	000b8593          	mv	a1,s7
   11304:	000c0513          	mv	a0,s8
   11308:	0000c097          	auipc	ra,0xc
   1130c:	938080e7          	jalr	-1736(ra) # 1cc40 <__sprint_r>
   11310:	020514e3          	bnez	a0,11b38 <_vfprintf_r+0xfa0>
   11314:	12013783          	ld	a5,288(sp)
   11318:	19010313          	addi	t1,sp,400
   1131c:	b3dff06f          	j	10e58 <_vfprintf_r+0x2c0>
   11320:	04013703          	ld	a4,64(sp)
   11324:	03813683          	ld	a3,56(sp)
   11328:	01030313          	addi	t1,t1,16
   1132c:	fee33823          	sd	a4,-16(t1)
   11330:	11812703          	lw	a4,280(sp)
   11334:	00d787b3          	add	a5,a5,a3
   11338:	fed33c23          	sd	a3,-8(t1)
   1133c:	0017071b          	addiw	a4,a4,1
   11340:	0007069b          	sext.w	a3,a4
   11344:	10e12c23          	sw	a4,280(sp)
   11348:	12f13023          	sd	a5,288(sp)
   1134c:	00700713          	li	a4,7
   11350:	02d75663          	bge	a4,a3,1137c <_vfprintf_r+0x7e4>
   11354:	11010613          	addi	a2,sp,272
   11358:	000b8593          	mv	a1,s7
   1135c:	000c0513          	mv	a0,s8
   11360:	0000c097          	auipc	ra,0xc
   11364:	8e0080e7          	jalr	-1824(ra) # 1cc40 <__sprint_r>
   11368:	7c051863          	bnez	a0,11b38 <_vfprintf_r+0xfa0>
   1136c:	0e812603          	lw	a2,232(sp)
   11370:	12013783          	ld	a5,288(sp)
   11374:	11812683          	lw	a3,280(sp)
   11378:	19010313          	addi	t1,sp,400
   1137c:	00065463          	bgez	a2,11384 <_vfprintf_r+0x7ec>
   11380:	3810106f          	j	12f00 <_vfprintf_r+0x2368>
   11384:	02013703          	ld	a4,32(sp)
   11388:	0016861b          	addiw	a2,a3,1
   1138c:	01a33023          	sd	s10,0(t1)
   11390:	00f707b3          	add	a5,a4,a5
   11394:	00e33423          	sd	a4,8(t1)
   11398:	12f13023          	sd	a5,288(sp)
   1139c:	10c12c23          	sw	a2,280(sp)
   113a0:	00700713          	li	a4,7
   113a4:	b2c756e3          	bge	a4,a2,10ed0 <_vfprintf_r+0x338>
   113a8:	11010613          	addi	a2,sp,272
   113ac:	000b8593          	mv	a1,s7
   113b0:	000c0513          	mv	a0,s8
   113b4:	0000c097          	auipc	ra,0xc
   113b8:	88c080e7          	jalr	-1908(ra) # 1cc40 <__sprint_r>
   113bc:	76051e63          	bnez	a0,11b38 <_vfprintf_r+0xfa0>
   113c0:	12013783          	ld	a5,288(sp)
   113c4:	19010313          	addi	t1,sp,400
   113c8:	b0dff06f          	j	10ed4 <_vfprintf_r+0x33c>
   113cc:	000c0513          	mv	a0,s8
   113d0:	00003097          	auipc	ra,0x3
   113d4:	ad0080e7          	jalr	-1328(ra) # 13ea0 <__sinit>
   113d8:	83dff06f          	j	10c14 <_vfprintf_r+0x7c>
   113dc:	00813703          	ld	a4,8(sp)
   113e0:	000c8313          	mv	t1,s9
   113e4:	0c010fa3          	sb	zero,223(sp)
   113e8:	00072783          	lw	a5,0(a4)
   113ec:	00870713          	addi	a4,a4,8
   113f0:	00e13423          	sd	a4,8(sp)
   113f4:	12f10423          	sb	a5,296(sp)
   113f8:	00100993          	li	s3,1
   113fc:	00100a13          	li	s4,1
   11400:	12810d13          	addi	s10,sp,296
   11404:	9e1ff06f          	j	10de4 <_vfprintf_r+0x24c>
   11408:	00813783          	ld	a5,8(sp)
   1140c:	0c010fa3          	sb	zero,223(sp)
   11410:	000c8313          	mv	t1,s9
   11414:	0007bd03          	ld	s10,0(a5)
   11418:	00878c93          	addi	s9,a5,8
   1141c:	6e0d06e3          	beqz	s10,12308 <_vfprintf_r+0x1770>
   11420:	fff00793          	li	a5,-1
   11424:	00fd9463          	bne	s11,a5,1142c <_vfprintf_r+0x894>
   11428:	1280106f          	j	12550 <_vfprintf_r+0x19b8>
   1142c:	000d8613          	mv	a2,s11
   11430:	00000593          	li	a1,0
   11434:	000d0513          	mv	a0,s10
   11438:	00613423          	sd	t1,8(sp)
   1143c:	00007097          	auipc	ra,0x7
   11440:	f10080e7          	jalr	-240(ra) # 1834c <memchr>
   11444:	00a13823          	sd	a0,16(sp)
   11448:	00813303          	ld	t1,8(sp)
   1144c:	00051463          	bnez	a0,11454 <_vfprintf_r+0x8bc>
   11450:	1cd0106f          	j	12e1c <_vfprintf_r+0x2284>
   11454:	01013783          	ld	a5,16(sp)
   11458:	01913423          	sd	s9,8(sp)
   1145c:	00013823          	sd	zero,16(sp)
   11460:	41a78a3b          	subw	s4,a5,s10
   11464:	fffa4993          	not	s3,s4
   11468:	0df14783          	lbu	a5,223(sp)
   1146c:	43f9d993          	srai	s3,s3,0x3f
   11470:	013a79b3          	and	s3,s4,s3
   11474:	02013823          	sd	zero,48(sp)
   11478:	02013423          	sd	zero,40(sp)
   1147c:	00013c23          	sd	zero,24(sp)
   11480:	0009899b          	sext.w	s3,s3
   11484:	00000d93          	li	s11,0
   11488:	960788e3          	beqz	a5,10df8 <_vfprintf_r+0x260>
   1148c:	0019899b          	addiw	s3,s3,1
   11490:	969ff06f          	j	10df8 <_vfprintf_r+0x260>
   11494:	00044e83          	lbu	t4,0(s0)
   11498:	0044e493          	ori	s1,s1,4
   1149c:	0004849b          	sext.w	s1,s1
   114a0:	8c5ff06f          	j	10d64 <_vfprintf_r+0x1cc>
   114a4:	02b00793          	li	a5,43
   114a8:	00044e83          	lbu	t4,0(s0)
   114ac:	0cf10fa3          	sb	a5,223(sp)
   114b0:	8b5ff06f          	j	10d64 <_vfprintf_r+0x1cc>
   114b4:	0804e493          	ori	s1,s1,128
   114b8:	00044e83          	lbu	t4,0(s0)
   114bc:	0004849b          	sext.w	s1,s1
   114c0:	8a5ff06f          	j	10d64 <_vfprintf_r+0x1cc>
   114c4:	00044a83          	lbu	s5,0(s0)
   114c8:	00140793          	addi	a5,s0,1
   114cc:	00da9463          	bne	s5,a3,114d4 <_vfprintf_r+0x93c>
   114d0:	60d0106f          	j	132dc <_vfprintf_r+0x2744>
   114d4:	fd0a871b          	addiw	a4,s5,-48
   114d8:	00078413          	mv	s0,a5
   114dc:	00000d93          	li	s11,0
   114e0:	88eb68e3          	bltu	s6,a4,10d70 <_vfprintf_r+0x1d8>
   114e4:	00044603          	lbu	a2,0(s0)
   114e8:	002d979b          	slliw	a5,s11,0x2
   114ec:	01b787bb          	addw	a5,a5,s11
   114f0:	0017979b          	slliw	a5,a5,0x1
   114f4:	00e78dbb          	addw	s11,a5,a4
   114f8:	fd06071b          	addiw	a4,a2,-48
   114fc:	00140413          	addi	s0,s0,1
   11500:	feeb72e3          	bgeu	s6,a4,114e4 <_vfprintf_r+0x94c>
   11504:	00060a93          	mv	s5,a2
   11508:	869ff06f          	j	10d70 <_vfprintf_r+0x1d8>
   1150c:	00813783          	ld	a5,8(sp)
   11510:	00044e83          	lbu	t4,0(s0)
   11514:	0007a903          	lw	s2,0(a5)
   11518:	00878793          	addi	a5,a5,8
   1151c:	00f13423          	sd	a5,8(sp)
   11520:	840952e3          	bgez	s2,10d64 <_vfprintf_r+0x1cc>
   11524:	4120093b          	negw	s2,s2
   11528:	f71ff06f          	j	11498 <_vfprintf_r+0x900>
   1152c:	000c0513          	mv	a0,s8
   11530:	00006097          	auipc	ra,0x6
   11534:	28c080e7          	jalr	652(ra) # 177bc <_localeconv_r>
   11538:	00853783          	ld	a5,8(a0)
   1153c:	00078513          	mv	a0,a5
   11540:	04f13c23          	sd	a5,88(sp)
   11544:	fffff097          	auipc	ra,0xfffff
   11548:	360080e7          	jalr	864(ra) # 108a4 <strlen>
   1154c:	00050793          	mv	a5,a0
   11550:	000c0513          	mv	a0,s8
   11554:	00078a93          	mv	s5,a5
   11558:	06f13c23          	sd	a5,120(sp)
   1155c:	00006097          	auipc	ra,0x6
   11560:	260080e7          	jalr	608(ra) # 177bc <_localeconv_r>
   11564:	01053783          	ld	a5,16(a0)
   11568:	00044e83          	lbu	t4,0(s0)
   1156c:	06f13023          	sd	a5,96(sp)
   11570:	fe0a8a63          	beqz	s5,10d64 <_vfprintf_r+0x1cc>
   11574:	fe078863          	beqz	a5,10d64 <_vfprintf_r+0x1cc>
   11578:	0007c783          	lbu	a5,0(a5)
   1157c:	fe078463          	beqz	a5,10d64 <_vfprintf_r+0x1cc>
   11580:	4004e493          	ori	s1,s1,1024
   11584:	0004849b          	sext.w	s1,s1
   11588:	fdcff06f          	j	10d64 <_vfprintf_r+0x1cc>
   1158c:	0014e493          	ori	s1,s1,1
   11590:	00044e83          	lbu	t4,0(s0)
   11594:	0004849b          	sext.w	s1,s1
   11598:	fccff06f          	j	10d64 <_vfprintf_r+0x1cc>
   1159c:	0df14783          	lbu	a5,223(sp)
   115a0:	00044e83          	lbu	t4,0(s0)
   115a4:	fc079063          	bnez	a5,10d64 <_vfprintf_r+0x1cc>
   115a8:	02000793          	li	a5,32
   115ac:	0cf10fa3          	sb	a5,223(sp)
   115b0:	fb4ff06f          	j	10d64 <_vfprintf_r+0x1cc>
   115b4:	0104e493          	ori	s1,s1,16
   115b8:	000c8313          	mv	t1,s9
   115bc:	00048b1b          	sext.w	s6,s1
   115c0:	00813683          	ld	a3,8(sp)
   115c4:	020b7793          	andi	a5,s6,32
   115c8:	00868713          	addi	a4,a3,8
   115cc:	320788e3          	beqz	a5,120fc <_vfprintf_r+0x1564>
   115d0:	0006b983          	ld	s3,0(a3)
   115d4:	00100793          	li	a5,1
   115d8:	00e13423          	sd	a4,8(sp)
   115dc:	0c010fa3          	sb	zero,223(sp)
   115e0:	fff00713          	li	a4,-1
   115e4:	1aed8c63          	beq	s11,a4,1179c <_vfprintf_r+0xc04>
   115e8:	f7fb7493          	andi	s1,s6,-129
   115ec:	0004849b          	sext.w	s1,s1
   115f0:	1a099463          	bnez	s3,11798 <_vfprintf_r+0xc00>
   115f4:	640d9a63          	bnez	s11,11c48 <_vfprintf_r+0x10b0>
   115f8:	08079863          	bnez	a5,11688 <_vfprintf_r+0xaf0>
   115fc:	001b7a13          	andi	s4,s6,1
   11600:	18c10d13          	addi	s10,sp,396
   11604:	360a10e3          	bnez	s4,12164 <_vfprintf_r+0x15cc>
   11608:	000a099b          	sext.w	s3,s4
   1160c:	01ba5463          	bge	s4,s11,11614 <_vfprintf_r+0xa7c>
   11610:	000d899b          	sext.w	s3,s11
   11614:	0df14783          	lbu	a5,223(sp)
   11618:	00013823          	sd	zero,16(sp)
   1161c:	02013823          	sd	zero,48(sp)
   11620:	02013423          	sd	zero,40(sp)
   11624:	00013c23          	sd	zero,24(sp)
   11628:	e60792e3          	bnez	a5,1148c <_vfprintf_r+0x8f4>
   1162c:	fccff06f          	j	10df8 <_vfprintf_r+0x260>
   11630:	0084e493          	ori	s1,s1,8
   11634:	00044e83          	lbu	t4,0(s0)
   11638:	0004849b          	sext.w	s1,s1
   1163c:	f28ff06f          	j	10d64 <_vfprintf_r+0x1cc>
   11640:	0104e493          	ori	s1,s1,16
   11644:	000c8313          	mv	t1,s9
   11648:	0004849b          	sext.w	s1,s1
   1164c:	00813683          	ld	a3,8(sp)
   11650:	0204f793          	andi	a5,s1,32
   11654:	00868713          	addi	a4,a3,8
   11658:	260784e3          	beqz	a5,120c0 <_vfprintf_r+0x1528>
   1165c:	0006b783          	ld	a5,0(a3)
   11660:	00078993          	mv	s3,a5
   11664:	2607cee3          	bltz	a5,120e0 <_vfprintf_r+0x1548>
   11668:	fff00793          	li	a5,-1
   1166c:	72fd8063          	beq	s11,a5,11d8c <_vfprintf_r+0x11f4>
   11670:	f7f4f493          	andi	s1,s1,-129
   11674:	00e13423          	sd	a4,8(sp)
   11678:	00048b1b          	sext.w	s6,s1
   1167c:	70099c63          	bnez	s3,11d94 <_vfprintf_r+0x11fc>
   11680:	700d9e63          	bnez	s11,11d9c <_vfprintf_r+0x1204>
   11684:	000b0493          	mv	s1,s6
   11688:	00000d93          	li	s11,0
   1168c:	00000a13          	li	s4,0
   11690:	18c10d13          	addi	s10,sp,396
   11694:	f75ff06f          	j	11608 <_vfprintf_r+0xa70>
   11698:	0104e493          	ori	s1,s1,16
   1169c:	000c8313          	mv	t1,s9
   116a0:	0004849b          	sext.w	s1,s1
   116a4:	00813683          	ld	a3,8(sp)
   116a8:	0204f793          	andi	a5,s1,32
   116ac:	00868713          	addi	a4,a3,8
   116b0:	26078ce3          	beqz	a5,12128 <_vfprintf_r+0x1590>
   116b4:	0006b983          	ld	s3,0(a3)
   116b8:	bff4f493          	andi	s1,s1,-1025
   116bc:	00048b1b          	sext.w	s6,s1
   116c0:	00e13423          	sd	a4,8(sp)
   116c4:	00000793          	li	a5,0
   116c8:	f15ff06f          	j	115dc <_vfprintf_r+0xa44>
   116cc:	0204e493          	ori	s1,s1,32
   116d0:	00044e83          	lbu	t4,0(s0)
   116d4:	0004849b          	sext.w	s1,s1
   116d8:	e8cff06f          	j	10d64 <_vfprintf_r+0x1cc>
   116dc:	00813683          	ld	a3,8(sp)
   116e0:	0204f793          	andi	a5,s1,32
   116e4:	000c8313          	mv	t1,s9
   116e8:	0006b703          	ld	a4,0(a3)
   116ec:	00868693          	addi	a3,a3,8
   116f0:	00d13423          	sd	a3,8(sp)
   116f4:	280790e3          	bnez	a5,12174 <_vfprintf_r+0x15dc>
   116f8:	0104f793          	andi	a5,s1,16
   116fc:	26079ce3          	bnez	a5,12174 <_vfprintf_r+0x15dc>
   11700:	0404f793          	andi	a5,s1,64
   11704:	00078463          	beqz	a5,1170c <_vfprintf_r+0xb74>
   11708:	1fc0106f          	j	12904 <_vfprintf_r+0x1d6c>
   1170c:	2004f493          	andi	s1,s1,512
   11710:	00013783          	ld	a5,0(sp)
   11714:	00049463          	bnez	s1,1171c <_vfprintf_r+0xb84>
   11718:	1610106f          	j	13078 <_vfprintf_r+0x24e0>
   1171c:	00f70023          	sb	a5,0(a4)
   11720:	00040d13          	mv	s10,s0
   11724:	801ff06f          	j	10f24 <_vfprintf_r+0x38c>
   11728:	00044e83          	lbu	t4,0(s0)
   1172c:	06c00793          	li	a5,108
   11730:	3cfe82e3          	beq	t4,a5,122f4 <_vfprintf_r+0x175c>
   11734:	0104e493          	ori	s1,s1,16
   11738:	0004849b          	sext.w	s1,s1
   1173c:	e28ff06f          	j	10d64 <_vfprintf_r+0x1cc>
   11740:	00044e83          	lbu	t4,0(s0)
   11744:	06800793          	li	a5,104
   11748:	38fe8ce3          	beq	t4,a5,122e0 <_vfprintf_r+0x1748>
   1174c:	0404e493          	ori	s1,s1,64
   11750:	0004849b          	sext.w	s1,s1
   11754:	e10ff06f          	j	10d64 <_vfprintf_r+0x1cc>
   11758:	00813703          	ld	a4,8(sp)
   1175c:	ffff87b7          	lui	a5,0xffff8
   11760:	8307c793          	xori	a5,a5,-2000
   11764:	0ef11023          	sh	a5,224(sp)
   11768:	00870793          	addi	a5,a4,8
   1176c:	00f13423          	sd	a5,8(sp)
   11770:	000227b7          	lui	a5,0x22
   11774:	ab078793          	addi	a5,a5,-1360 # 21ab0 <__clzdi2+0xac>
   11778:	0024e493          	ori	s1,s1,2
   1177c:	04f13423          	sd	a5,72(sp)
   11780:	00073983          	ld	s3,0(a4)
   11784:	000c8313          	mv	t1,s9
   11788:	00048b1b          	sext.w	s6,s1
   1178c:	00200793          	li	a5,2
   11790:	07800a93          	li	s5,120
   11794:	e49ff06f          	j	115dc <_vfprintf_r+0xa44>
   11798:	00048b13          	mv	s6,s1
   1179c:	00100713          	li	a4,1
   117a0:	5ee78a63          	beq	a5,a4,11d94 <_vfprintf_r+0x11fc>
   117a4:	00200713          	li	a4,2
   117a8:	4ae78c63          	beq	a5,a4,11c60 <_vfprintf_r+0x10c8>
   117ac:	18c10a13          	addi	s4,sp,396
   117b0:	000a0d13          	mv	s10,s4
   117b4:	0079f793          	andi	a5,s3,7
   117b8:	03078793          	addi	a5,a5,48
   117bc:	fefd0fa3          	sb	a5,-1(s10)
   117c0:	0039d993          	srli	s3,s3,0x3
   117c4:	000d0713          	mv	a4,s10
   117c8:	fffd0d13          	addi	s10,s10,-1
   117cc:	fe0994e3          	bnez	s3,117b4 <_vfprintf_r+0xc1c>
   117d0:	001b7693          	andi	a3,s6,1
   117d4:	08068663          	beqz	a3,11860 <_vfprintf_r+0xcc8>
   117d8:	03000693          	li	a3,48
   117dc:	08d78263          	beq	a5,a3,11860 <_vfprintf_r+0xcc8>
   117e0:	ffe70713          	addi	a4,a4,-2
   117e4:	fedd0fa3          	sb	a3,-1(s10)
   117e8:	40ea0a3b          	subw	s4,s4,a4
   117ec:	000b0493          	mv	s1,s6
   117f0:	00070d13          	mv	s10,a4
   117f4:	e15ff06f          	j	11608 <_vfprintf_r+0xa70>
   117f8:	400b7793          	andi	a5,s6,1024
   117fc:	18c10a13          	addi	s4,sp,396
   11800:	06013803          	ld	a6,96(sp)
   11804:	0007869b          	sext.w	a3,a5
   11808:	00000593          	li	a1,0
   1180c:	000a0613          	mv	a2,s4
   11810:	00a00493          	li	s1,10
   11814:	00900713          	li	a4,9
   11818:	0ff00c93          	li	s9,255
   1181c:	0140006f          	j	11830 <_vfprintf_r+0xc98>
   11820:	0299d7b3          	divu	a5,s3,s1
   11824:	03377a63          	bgeu	a4,s3,11858 <_vfprintf_r+0xcc0>
   11828:	00078993          	mv	s3,a5
   1182c:	000d0613          	mv	a2,s10
   11830:	fff60d13          	addi	s10,a2,-1
   11834:	0015859b          	addiw	a1,a1,1
   11838:	0299f7b3          	remu	a5,s3,s1
   1183c:	0307879b          	addiw	a5,a5,48
   11840:	fef60fa3          	sb	a5,-1(a2)
   11844:	fc068ee3          	beqz	a3,11820 <_vfprintf_r+0xc88>
   11848:	00084783          	lbu	a5,0(a6)
   1184c:	fcf59ae3          	bne	a1,a5,11820 <_vfprintf_r+0xc88>
   11850:	fd9788e3          	beq	a5,s9,11820 <_vfprintf_r+0xc88>
   11854:	7d3768e3          	bltu	a4,s3,12824 <_vfprintf_r+0x1c8c>
   11858:	07013023          	sd	a6,96(sp)
   1185c:	02b13023          	sd	a1,32(sp)
   11860:	41aa0a3b          	subw	s4,s4,s10
   11864:	000b0493          	mv	s1,s6
   11868:	da1ff06f          	j	11608 <_vfprintf_r+0xa70>
   1186c:	06500713          	li	a4,101
   11870:	2f575063          	bge	a4,s5,11b50 <_vfprintf_r+0xfb8>
   11874:	10013503          	ld	a0,256(sp)
   11878:	10813583          	ld	a1,264(sp)
   1187c:	00000613          	li	a2,0
   11880:	00000693          	li	a3,0
   11884:	06613823          	sd	t1,112(sp)
   11888:	06f13423          	sd	a5,104(sp)
   1188c:	0000f097          	auipc	ra,0xf
   11890:	d14080e7          	jalr	-748(ra) # 205a0 <__eqtf2>
   11894:	06813783          	ld	a5,104(sp)
   11898:	07013303          	ld	t1,112(sp)
   1189c:	5e051c63          	bnez	a0,11e94 <_vfprintf_r+0x12fc>
   118a0:	11812703          	lw	a4,280(sp)
   118a4:	000226b7          	lui	a3,0x22
   118a8:	ad068693          	addi	a3,a3,-1328 # 21ad0 <__clzdi2+0xcc>
   118ac:	0017071b          	addiw	a4,a4,1
   118b0:	00d33023          	sd	a3,0(t1)
   118b4:	00178793          	addi	a5,a5,1
   118b8:	00100693          	li	a3,1
   118bc:	00d33423          	sd	a3,8(t1)
   118c0:	10e12c23          	sw	a4,280(sp)
   118c4:	0007069b          	sext.w	a3,a4
   118c8:	12f13023          	sd	a5,288(sp)
   118cc:	00700713          	li	a4,7
   118d0:	01030313          	addi	t1,t1,16
   118d4:	3ed740e3          	blt	a4,a3,124b4 <_vfprintf_r+0x191c>
   118d8:	0e812703          	lw	a4,232(sp)
   118dc:	02013683          	ld	a3,32(sp)
   118e0:	06d756e3          	bge	a4,a3,1214c <_vfprintf_r+0x15b4>
   118e4:	04013703          	ld	a4,64(sp)
   118e8:	03813683          	ld	a3,56(sp)
   118ec:	01030313          	addi	t1,t1,16
   118f0:	fee33823          	sd	a4,-16(t1)
   118f4:	11812703          	lw	a4,280(sp)
   118f8:	00d787b3          	add	a5,a5,a3
   118fc:	fed33c23          	sd	a3,-8(t1)
   11900:	0017071b          	addiw	a4,a4,1
   11904:	0007069b          	sext.w	a3,a4
   11908:	10e12c23          	sw	a4,280(sp)
   1190c:	12f13023          	sd	a5,288(sp)
   11910:	00700713          	li	a4,7
   11914:	1ad744e3          	blt	a4,a3,122bc <_vfprintf_r+0x1724>
   11918:	02013703          	ld	a4,32(sp)
   1191c:	fff70a1b          	addiw	s4,a4,-1
   11920:	db405a63          	blez	s4,10ed4 <_vfprintf_r+0x33c>
   11924:	000228b7          	lui	a7,0x22
   11928:	01000693          	li	a3,16
   1192c:	11812703          	lw	a4,280(sp)
   11930:	c5888c93          	addi	s9,a7,-936 # 21c58 <zeroes.4519>
   11934:	01000b13          	li	s6,16
   11938:	00700a93          	li	s5,7
   1193c:	0146c863          	blt	a3,s4,1194c <_vfprintf_r+0xdb4>
   11940:	3990006f          	j	124d8 <_vfprintf_r+0x1940>
   11944:	ff0a0a1b          	addiw	s4,s4,-16
   11948:	394b58e3          	bge	s6,s4,124d8 <_vfprintf_r+0x1940>
   1194c:	0017071b          	addiw	a4,a4,1
   11950:	01078793          	addi	a5,a5,16
   11954:	01933023          	sd	s9,0(t1)
   11958:	01633423          	sd	s6,8(t1)
   1195c:	12f13023          	sd	a5,288(sp)
   11960:	10e12c23          	sw	a4,280(sp)
   11964:	01030313          	addi	t1,t1,16
   11968:	fceadee3          	bge	s5,a4,11944 <_vfprintf_r+0xdac>
   1196c:	11010613          	addi	a2,sp,272
   11970:	000b8593          	mv	a1,s7
   11974:	000c0513          	mv	a0,s8
   11978:	0000b097          	auipc	ra,0xb
   1197c:	2c8080e7          	jalr	712(ra) # 1cc40 <__sprint_r>
   11980:	1a051c63          	bnez	a0,11b38 <_vfprintf_r+0xfa0>
   11984:	12013783          	ld	a5,288(sp)
   11988:	11812703          	lw	a4,280(sp)
   1198c:	19010313          	addi	t1,sp,400
   11990:	fb5ff06f          	j	11944 <_vfprintf_r+0xdac>
   11994:	41390b3b          	subw	s6,s2,s3
   11998:	d1605063          	blez	s6,10e98 <_vfprintf_r+0x300>
   1199c:	000228b7          	lui	a7,0x22
   119a0:	01000613          	li	a2,16
   119a4:	11812703          	lw	a4,280(sp)
   119a8:	c5888c93          	addi	s9,a7,-936 # 21c58 <zeroes.4519>
   119ac:	01000f13          	li	t5,16
   119b0:	00700f93          	li	t6,7
   119b4:	01664863          	blt	a2,s6,119c4 <_vfprintf_r+0xe2c>
   119b8:	0600006f          	j	11a18 <_vfprintf_r+0xe80>
   119bc:	ff0b0b1b          	addiw	s6,s6,-16
   119c0:	056f5c63          	bge	t5,s6,11a18 <_vfprintf_r+0xe80>
   119c4:	0017071b          	addiw	a4,a4,1
   119c8:	01078793          	addi	a5,a5,16
   119cc:	01933023          	sd	s9,0(t1)
   119d0:	01e33423          	sd	t5,8(t1)
   119d4:	12f13023          	sd	a5,288(sp)
   119d8:	10e12c23          	sw	a4,280(sp)
   119dc:	01030313          	addi	t1,t1,16
   119e0:	fcefdee3          	bge	t6,a4,119bc <_vfprintf_r+0xe24>
   119e4:	11010613          	addi	a2,sp,272
   119e8:	000b8593          	mv	a1,s7
   119ec:	000c0513          	mv	a0,s8
   119f0:	0000b097          	auipc	ra,0xb
   119f4:	250080e7          	jalr	592(ra) # 1cc40 <__sprint_r>
   119f8:	14051063          	bnez	a0,11b38 <_vfprintf_r+0xfa0>
   119fc:	01000f13          	li	t5,16
   11a00:	ff0b0b1b          	addiw	s6,s6,-16
   11a04:	12013783          	ld	a5,288(sp)
   11a08:	11812703          	lw	a4,280(sp)
   11a0c:	19010313          	addi	t1,sp,400
   11a10:	00700f93          	li	t6,7
   11a14:	fb6f48e3          	blt	t5,s6,119c4 <_vfprintf_r+0xe2c>
   11a18:	0017069b          	addiw	a3,a4,1
   11a1c:	016787b3          	add	a5,a5,s6
   11a20:	01933023          	sd	s9,0(t1)
   11a24:	01633423          	sd	s6,8(t1)
   11a28:	12f13023          	sd	a5,288(sp)
   11a2c:	10d12c23          	sw	a3,280(sp)
   11a30:	00700713          	li	a4,7
   11a34:	01030313          	addi	t1,t1,16
   11a38:	c6d75063          	bge	a4,a3,10e98 <_vfprintf_r+0x300>
   11a3c:	11010613          	addi	a2,sp,272
   11a40:	000b8593          	mv	a1,s7
   11a44:	000c0513          	mv	a0,s8
   11a48:	0000b097          	auipc	ra,0xb
   11a4c:	1f8080e7          	jalr	504(ra) # 1cc40 <__sprint_r>
   11a50:	0e051463          	bnez	a0,11b38 <_vfprintf_r+0xfa0>
   11a54:	12013783          	ld	a5,288(sp)
   11a58:	19010313          	addi	t1,sp,400
   11a5c:	c3cff06f          	j	10e98 <_vfprintf_r+0x300>
   11a60:	000228b7          	lui	a7,0x22
   11a64:	01000693          	li	a3,16
   11a68:	11812703          	lw	a4,280(sp)
   11a6c:	c5888c93          	addi	s9,a7,-936 # 21c58 <zeroes.4519>
   11a70:	01000f13          	li	t5,16
   11a74:	00700b13          	li	s6,7
   11a78:	01b6c863          	blt	a3,s11,11a88 <_vfprintf_r+0xef0>
   11a7c:	05c0006f          	j	11ad8 <_vfprintf_r+0xf40>
   11a80:	ff0d8d9b          	addiw	s11,s11,-16
   11a84:	05bf5a63          	bge	t5,s11,11ad8 <_vfprintf_r+0xf40>
   11a88:	0017071b          	addiw	a4,a4,1
   11a8c:	01078793          	addi	a5,a5,16
   11a90:	01933023          	sd	s9,0(t1)
   11a94:	01e33423          	sd	t5,8(t1)
   11a98:	12f13023          	sd	a5,288(sp)
   11a9c:	10e12c23          	sw	a4,280(sp)
   11aa0:	01030313          	addi	t1,t1,16
   11aa4:	fceb5ee3          	bge	s6,a4,11a80 <_vfprintf_r+0xee8>
   11aa8:	11010613          	addi	a2,sp,272
   11aac:	000b8593          	mv	a1,s7
   11ab0:	000c0513          	mv	a0,s8
   11ab4:	0000b097          	auipc	ra,0xb
   11ab8:	18c080e7          	jalr	396(ra) # 1cc40 <__sprint_r>
   11abc:	06051e63          	bnez	a0,11b38 <_vfprintf_r+0xfa0>
   11ac0:	01000f13          	li	t5,16
   11ac4:	ff0d8d9b          	addiw	s11,s11,-16
   11ac8:	12013783          	ld	a5,288(sp)
   11acc:	11812703          	lw	a4,280(sp)
   11ad0:	19010313          	addi	t1,sp,400
   11ad4:	fbbf4ae3          	blt	t5,s11,11a88 <_vfprintf_r+0xef0>
   11ad8:	0017069b          	addiw	a3,a4,1
   11adc:	01b787b3          	add	a5,a5,s11
   11ae0:	01933023          	sd	s9,0(t1)
   11ae4:	01b33423          	sd	s11,8(t1)
   11ae8:	12f13023          	sd	a5,288(sp)
   11aec:	10d12c23          	sw	a3,280(sp)
   11af0:	00700713          	li	a4,7
   11af4:	01030313          	addi	t1,t1,16
   11af8:	bad75463          	bge	a4,a3,10ea0 <_vfprintf_r+0x308>
   11afc:	11010613          	addi	a2,sp,272
   11b00:	000b8593          	mv	a1,s7
   11b04:	000c0513          	mv	a0,s8
   11b08:	0000b097          	auipc	ra,0xb
   11b0c:	138080e7          	jalr	312(ra) # 1cc40 <__sprint_r>
   11b10:	02051463          	bnez	a0,11b38 <_vfprintf_r+0xfa0>
   11b14:	12013783          	ld	a5,288(sp)
   11b18:	19010313          	addi	t1,sp,400
   11b1c:	b84ff06f          	j	10ea0 <_vfprintf_r+0x308>
   11b20:	11010613          	addi	a2,sp,272
   11b24:	000b8593          	mv	a1,s7
   11b28:	000c0513          	mv	a0,s8
   11b2c:	0000b097          	auipc	ra,0xb
   11b30:	114080e7          	jalr	276(ra) # 1cc40 <__sprint_r>
   11b34:	bc050663          	beqz	a0,10f00 <_vfprintf_r+0x368>
   11b38:	01013583          	ld	a1,16(sp)
   11b3c:	be058e63          	beqz	a1,10f38 <_vfprintf_r+0x3a0>
   11b40:	000c0513          	mv	a0,s8
   11b44:	00002097          	auipc	ra,0x2
   11b48:	564080e7          	jalr	1380(ra) # 140a8 <_free_r>
   11b4c:	becff06f          	j	10f38 <_vfprintf_r+0x3a0>
   11b50:	11812583          	lw	a1,280(sp)
   11b54:	00178a93          	addi	s5,a5,1
   11b58:	02013783          	ld	a5,32(sp)
   11b5c:	0015871b          	addiw	a4,a1,1
   11b60:	00100613          	li	a2,1
   11b64:	01a33023          	sd	s10,0(t1)
   11b68:	00070693          	mv	a3,a4
   11b6c:	01030a13          	addi	s4,t1,16
   11b70:	4af65663          	bge	a2,a5,1201c <_vfprintf_r+0x1484>
   11b74:	00100613          	li	a2,1
   11b78:	10d12c23          	sw	a3,280(sp)
   11b7c:	00c33423          	sd	a2,8(t1)
   11b80:	13513023          	sd	s5,288(sp)
   11b84:	00700693          	li	a3,7
   11b88:	02e6c2e3          	blt	a3,a4,123ac <_vfprintf_r+0x1814>
   11b8c:	03813783          	ld	a5,56(sp)
   11b90:	04013683          	ld	a3,64(sp)
   11b94:	00170b1b          	addiw	s6,a4,1
   11b98:	00fa8ab3          	add	s5,s5,a5
   11b9c:	00da3023          	sd	a3,0(s4)
   11ba0:	00fa3423          	sd	a5,8(s4)
   11ba4:	13513023          	sd	s5,288(sp)
   11ba8:	11612c23          	sw	s6,280(sp)
   11bac:	00700713          	li	a4,7
   11bb0:	010a0a13          	addi	s4,s4,16
   11bb4:	036740e3          	blt	a4,s6,123d4 <_vfprintf_r+0x183c>
   11bb8:	10013503          	ld	a0,256(sp)
   11bbc:	10813583          	ld	a1,264(sp)
   11bc0:	001b0e1b          	addiw	t3,s6,1
   11bc4:	00000693          	li	a3,0
   11bc8:	00000613          	li	a2,0
   11bcc:	01c13c23          	sd	t3,24(sp)
   11bd0:	0000f097          	auipc	ra,0xf
   11bd4:	9d0080e7          	jalr	-1584(ra) # 205a0 <__eqtf2>
   11bd8:	01813e03          	ld	t3,24(sp)
   11bdc:	02013783          	ld	a5,32(sp)
   11be0:	010a0313          	addi	t1,s4,16
   11be4:	000e069b          	sext.w	a3,t3
   11be8:	fff78d9b          	addiw	s11,a5,-1
   11bec:	44050c63          	beqz	a0,12044 <_vfprintf_r+0x14ac>
   11bf0:	001d0813          	addi	a6,s10,1
   11bf4:	01ba8ab3          	add	s5,s5,s11
   11bf8:	010a3023          	sd	a6,0(s4)
   11bfc:	01ba3423          	sd	s11,8(s4)
   11c00:	13513023          	sd	s5,288(sp)
   11c04:	11c12c23          	sw	t3,280(sp)
   11c08:	00700713          	li	a4,7
   11c0c:	60d74063          	blt	a4,a3,1220c <_vfprintf_r+0x1674>
   11c10:	020a0713          	addi	a4,s4,32
   11c14:	002b069b          	addiw	a3,s6,2
   11c18:	00030a13          	mv	s4,t1
   11c1c:	00070313          	mv	t1,a4
   11c20:	05013603          	ld	a2,80(sp)
   11c24:	0f010713          	addi	a4,sp,240
   11c28:	00ea3023          	sd	a4,0(s4)
   11c2c:	00ca87b3          	add	a5,s5,a2
   11c30:	00ca3423          	sd	a2,8(s4)
   11c34:	12f13023          	sd	a5,288(sp)
   11c38:	10d12c23          	sw	a3,280(sp)
   11c3c:	00700713          	li	a4,7
   11c40:	a8d75a63          	bge	a4,a3,10ed4 <_vfprintf_r+0x33c>
   11c44:	f64ff06f          	j	113a8 <_vfprintf_r+0x810>
   11c48:	00100713          	li	a4,1
   11c4c:	00e79463          	bne	a5,a4,11c54 <_vfprintf_r+0x10bc>
   11c50:	4100106f          	j	13060 <_vfprintf_r+0x24c8>
   11c54:	00200713          	li	a4,2
   11c58:	00048b13          	mv	s6,s1
   11c5c:	b4e798e3          	bne	a5,a4,117ac <_vfprintf_r+0xc14>
   11c60:	04813703          	ld	a4,72(sp)
   11c64:	18c10a13          	addi	s4,sp,396
   11c68:	000a0d13          	mv	s10,s4
   11c6c:	00f9f793          	andi	a5,s3,15
   11c70:	00f707b3          	add	a5,a4,a5
   11c74:	0007c783          	lbu	a5,0(a5)
   11c78:	0049d993          	srli	s3,s3,0x4
   11c7c:	fffd0d13          	addi	s10,s10,-1
   11c80:	00fd0023          	sb	a5,0(s10)
   11c84:	fe0994e3          	bnez	s3,11c6c <_vfprintf_r+0x10d4>
   11c88:	41aa0a3b          	subw	s4,s4,s10
   11c8c:	000b0493          	mv	s1,s6
   11c90:	979ff06f          	j	11608 <_vfprintf_r+0xa70>
   11c94:	000228b7          	lui	a7,0x22
   11c98:	01000613          	li	a2,16
   11c9c:	11812703          	lw	a4,280(sp)
   11ca0:	c4888893          	addi	a7,a7,-952 # 21c48 <blanks.4518>
   11ca4:	08d65e63          	bge	a2,a3,11d40 <_vfprintf_r+0x11a8>
   11ca8:	06813423          	sd	s0,104(sp)
   11cac:	06913823          	sd	s1,112(sp)
   11cb0:	000c0413          	mv	s0,s8
   11cb4:	000b8493          	mv	s1,s7
   11cb8:	01000f13          	li	t5,16
   11cbc:	00700393          	li	t2,7
   11cc0:	00068b93          	mv	s7,a3
   11cc4:	00088c13          	mv	s8,a7
   11cc8:	00c0006f          	j	11cd4 <_vfprintf_r+0x113c>
   11ccc:	ff0b8b9b          	addiw	s7,s7,-16
   11cd0:	057f5c63          	bge	t5,s7,11d28 <_vfprintf_r+0x1190>
   11cd4:	0017071b          	addiw	a4,a4,1
   11cd8:	01078793          	addi	a5,a5,16
   11cdc:	01833023          	sd	s8,0(t1)
   11ce0:	01e33423          	sd	t5,8(t1)
   11ce4:	12f13023          	sd	a5,288(sp)
   11ce8:	10e12c23          	sw	a4,280(sp)
   11cec:	01030313          	addi	t1,t1,16
   11cf0:	fce3dee3          	bge	t2,a4,11ccc <_vfprintf_r+0x1134>
   11cf4:	11010613          	addi	a2,sp,272
   11cf8:	00048593          	mv	a1,s1
   11cfc:	00040513          	mv	a0,s0
   11d00:	0000b097          	auipc	ra,0xb
   11d04:	f40080e7          	jalr	-192(ra) # 1cc40 <__sprint_r>
   11d08:	78051263          	bnez	a0,1248c <_vfprintf_r+0x18f4>
   11d0c:	01000f13          	li	t5,16
   11d10:	ff0b8b9b          	addiw	s7,s7,-16
   11d14:	12013783          	ld	a5,288(sp)
   11d18:	11812703          	lw	a4,280(sp)
   11d1c:	19010313          	addi	t1,sp,400
   11d20:	00700393          	li	t2,7
   11d24:	fb7f48e3          	blt	t5,s7,11cd4 <_vfprintf_r+0x113c>
   11d28:	000b8693          	mv	a3,s7
   11d2c:	000c0893          	mv	a7,s8
   11d30:	00048b93          	mv	s7,s1
   11d34:	00040c13          	mv	s8,s0
   11d38:	07013483          	ld	s1,112(sp)
   11d3c:	06813403          	ld	s0,104(sp)
   11d40:	0017071b          	addiw	a4,a4,1
   11d44:	00d787b3          	add	a5,a5,a3
   11d48:	00d33423          	sd	a3,8(t1)
   11d4c:	01133023          	sd	a7,0(t1)
   11d50:	0007069b          	sext.w	a3,a4
   11d54:	10e12c23          	sw	a4,280(sp)
   11d58:	12f13023          	sd	a5,288(sp)
   11d5c:	00700713          	li	a4,7
   11d60:	01030313          	addi	t1,t1,16
   11d64:	8ad75c63          	bge	a4,a3,10e1c <_vfprintf_r+0x284>
   11d68:	11010613          	addi	a2,sp,272
   11d6c:	000b8593          	mv	a1,s7
   11d70:	000c0513          	mv	a0,s8
   11d74:	0000b097          	auipc	ra,0xb
   11d78:	ecc080e7          	jalr	-308(ra) # 1cc40 <__sprint_r>
   11d7c:	da051ee3          	bnez	a0,11b38 <_vfprintf_r+0xfa0>
   11d80:	12013783          	ld	a5,288(sp)
   11d84:	19010313          	addi	t1,sp,400
   11d88:	894ff06f          	j	10e1c <_vfprintf_r+0x284>
   11d8c:	00048b13          	mv	s6,s1
   11d90:	00e13423          	sd	a4,8(sp)
   11d94:	00900793          	li	a5,9
   11d98:	a737e0e3          	bltu	a5,s3,117f8 <_vfprintf_r+0xc60>
   11d9c:	0309899b          	addiw	s3,s3,48
   11da0:	193105a3          	sb	s3,395(sp)
   11da4:	000b0493          	mv	s1,s6
   11da8:	00100a13          	li	s4,1
   11dac:	18b10d13          	addi	s10,sp,395
   11db0:	859ff06f          	j	11608 <_vfprintf_r+0xa70>
   11db4:	11010613          	addi	a2,sp,272
   11db8:	000b8593          	mv	a1,s7
   11dbc:	000c0513          	mv	a0,s8
   11dc0:	0000b097          	auipc	ra,0xb
   11dc4:	e80080e7          	jalr	-384(ra) # 1cc40 <__sprint_r>
   11dc8:	d60518e3          	bnez	a0,11b38 <_vfprintf_r+0xfa0>
   11dcc:	12013783          	ld	a5,288(sp)
   11dd0:	19010313          	addi	t1,sp,400
   11dd4:	8bcff06f          	j	10e90 <_vfprintf_r+0x2f8>
   11dd8:	000228b7          	lui	a7,0x22
   11ddc:	c4888893          	addi	a7,a7,-952 # 21c48 <blanks.4518>
   11de0:	01000693          	li	a3,16
   11de4:	11812703          	lw	a4,280(sp)
   11de8:	01000a13          	li	s4,16
   11dec:	00700b13          	li	s6,7
   11df0:	00088a93          	mv	s5,a7
   11df4:	0096c863          	blt	a3,s1,11e04 <_vfprintf_r+0x126c>
   11df8:	05c0006f          	j	11e54 <_vfprintf_r+0x12bc>
   11dfc:	ff04849b          	addiw	s1,s1,-16
   11e00:	049a5863          	bge	s4,s1,11e50 <_vfprintf_r+0x12b8>
   11e04:	0017071b          	addiw	a4,a4,1
   11e08:	01078793          	addi	a5,a5,16
   11e0c:	01533023          	sd	s5,0(t1)
   11e10:	01433423          	sd	s4,8(t1)
   11e14:	12f13023          	sd	a5,288(sp)
   11e18:	10e12c23          	sw	a4,280(sp)
   11e1c:	01030313          	addi	t1,t1,16
   11e20:	fceb5ee3          	bge	s6,a4,11dfc <_vfprintf_r+0x1264>
   11e24:	11010613          	addi	a2,sp,272
   11e28:	000b8593          	mv	a1,s7
   11e2c:	000c0513          	mv	a0,s8
   11e30:	0000b097          	auipc	ra,0xb
   11e34:	e10080e7          	jalr	-496(ra) # 1cc40 <__sprint_r>
   11e38:	d00510e3          	bnez	a0,11b38 <_vfprintf_r+0xfa0>
   11e3c:	ff04849b          	addiw	s1,s1,-16
   11e40:	12013783          	ld	a5,288(sp)
   11e44:	11812703          	lw	a4,280(sp)
   11e48:	19010313          	addi	t1,sp,400
   11e4c:	fa9a4ce3          	blt	s4,s1,11e04 <_vfprintf_r+0x126c>
   11e50:	000a8893          	mv	a7,s5
   11e54:	0017069b          	addiw	a3,a4,1
   11e58:	009787b3          	add	a5,a5,s1
   11e5c:	01133023          	sd	a7,0(t1)
   11e60:	00933423          	sd	s1,8(t1)
   11e64:	12f13023          	sd	a5,288(sp)
   11e68:	10d12c23          	sw	a3,280(sp)
   11e6c:	00700713          	li	a4,7
   11e70:	86d75a63          	bge	a4,a3,10ee4 <_vfprintf_r+0x34c>
   11e74:	11010613          	addi	a2,sp,272
   11e78:	000b8593          	mv	a1,s7
   11e7c:	000c0513          	mv	a0,s8
   11e80:	0000b097          	auipc	ra,0xb
   11e84:	dc0080e7          	jalr	-576(ra) # 1cc40 <__sprint_r>
   11e88:	ca0518e3          	bnez	a0,11b38 <_vfprintf_r+0xfa0>
   11e8c:	12013783          	ld	a5,288(sp)
   11e90:	854ff06f          	j	10ee4 <_vfprintf_r+0x34c>
   11e94:	0e812603          	lw	a2,232(sp)
   11e98:	56c05263          	blez	a2,123fc <_vfprintf_r+0x1864>
   11e9c:	01813703          	ld	a4,24(sp)
   11ea0:	02013683          	ld	a3,32(sp)
   11ea4:	00070a1b          	sext.w	s4,a4
   11ea8:	32e6ca63          	blt	a3,a4,121dc <_vfprintf_r+0x1644>
   11eac:	03405663          	blez	s4,11ed8 <_vfprintf_r+0x1340>
   11eb0:	11812703          	lw	a4,280(sp)
   11eb4:	014787b3          	add	a5,a5,s4
   11eb8:	01a33023          	sd	s10,0(t1)
   11ebc:	0017069b          	addiw	a3,a4,1
   11ec0:	01433423          	sd	s4,8(t1)
   11ec4:	12f13023          	sd	a5,288(sp)
   11ec8:	10d12c23          	sw	a3,280(sp)
   11ecc:	00700713          	li	a4,7
   11ed0:	01030313          	addi	t1,t1,16
   11ed4:	1ed742e3          	blt	a4,a3,128b8 <_vfprintf_r+0x1d20>
   11ed8:	fffa4713          	not	a4,s4
   11edc:	43f75713          	srai	a4,a4,0x3f
   11ee0:	00ea7a33          	and	s4,s4,a4
   11ee4:	01813703          	ld	a4,24(sp)
   11ee8:	41470a3b          	subw	s4,a4,s4
   11eec:	43404e63          	bgtz	s4,12328 <_vfprintf_r+0x1790>
   11ef0:	01813683          	ld	a3,24(sp)
   11ef4:	4004f713          	andi	a4,s1,1024
   11ef8:	00dd0ab3          	add	s5,s10,a3
   11efc:	74071e63          	bnez	a4,12658 <_vfprintf_r+0x1ac0>
   11f00:	0e812703          	lw	a4,232(sp)
   11f04:	02013683          	ld	a3,32(sp)
   11f08:	00d74663          	blt	a4,a3,11f14 <_vfprintf_r+0x137c>
   11f0c:	0014f693          	andi	a3,s1,1
   11f10:	1c068ae3          	beqz	a3,128e4 <_vfprintf_r+0x1d4c>
   11f14:	04013683          	ld	a3,64(sp)
   11f18:	03813603          	ld	a2,56(sp)
   11f1c:	01030313          	addi	t1,t1,16
   11f20:	fed33823          	sd	a3,-16(t1)
   11f24:	11812683          	lw	a3,280(sp)
   11f28:	00c787b3          	add	a5,a5,a2
   11f2c:	fec33c23          	sd	a2,-8(t1)
   11f30:	0016869b          	addiw	a3,a3,1
   11f34:	0006861b          	sext.w	a2,a3
   11f38:	10d12c23          	sw	a3,280(sp)
   11f3c:	12f13023          	sd	a5,288(sp)
   11f40:	00700693          	li	a3,7
   11f44:	60c6cae3          	blt	a3,a2,12d58 <_vfprintf_r+0x21c0>
   11f48:	02013683          	ld	a3,32(sp)
   11f4c:	40e6863b          	subw	a2,a3,a4
   11f50:	00dd06b3          	add	a3,s10,a3
   11f54:	415686bb          	subw	a3,a3,s5
   11f58:	00060713          	mv	a4,a2
   11f5c:	00c6d463          	bge	a3,a2,11f64 <_vfprintf_r+0x13cc>
   11f60:	00068713          	mv	a4,a3
   11f64:	00070a1b          	sext.w	s4,a4
   11f68:	03405663          	blez	s4,11f94 <_vfprintf_r+0x13fc>
   11f6c:	11812703          	lw	a4,280(sp)
   11f70:	014787b3          	add	a5,a5,s4
   11f74:	01533023          	sd	s5,0(t1)
   11f78:	0017069b          	addiw	a3,a4,1
   11f7c:	01433423          	sd	s4,8(t1)
   11f80:	12f13023          	sd	a5,288(sp)
   11f84:	10d12c23          	sw	a3,280(sp)
   11f88:	00700713          	li	a4,7
   11f8c:	01030313          	addi	t1,t1,16
   11f90:	72d74ee3          	blt	a4,a3,12ecc <_vfprintf_r+0x2334>
   11f94:	fffa4713          	not	a4,s4
   11f98:	43f75713          	srai	a4,a4,0x3f
   11f9c:	00ea7a33          	and	s4,s4,a4
   11fa0:	41460a3b          	subw	s4,a2,s4
   11fa4:	01404463          	bgtz	s4,11fac <_vfprintf_r+0x1414>
   11fa8:	f2dfe06f          	j	10ed4 <_vfprintf_r+0x33c>
   11fac:	000228b7          	lui	a7,0x22
   11fb0:	01000693          	li	a3,16
   11fb4:	11812703          	lw	a4,280(sp)
   11fb8:	c5888c93          	addi	s9,a7,-936 # 21c58 <zeroes.4519>
   11fbc:	01000b13          	li	s6,16
   11fc0:	00700a93          	li	s5,7
   11fc4:	0146c863          	blt	a3,s4,11fd4 <_vfprintf_r+0x143c>
   11fc8:	5100006f          	j	124d8 <_vfprintf_r+0x1940>
   11fcc:	ff0a0a1b          	addiw	s4,s4,-16
   11fd0:	514b5463          	bge	s6,s4,124d8 <_vfprintf_r+0x1940>
   11fd4:	0017071b          	addiw	a4,a4,1
   11fd8:	01078793          	addi	a5,a5,16
   11fdc:	01933023          	sd	s9,0(t1)
   11fe0:	01633423          	sd	s6,8(t1)
   11fe4:	12f13023          	sd	a5,288(sp)
   11fe8:	10e12c23          	sw	a4,280(sp)
   11fec:	01030313          	addi	t1,t1,16
   11ff0:	fceadee3          	bge	s5,a4,11fcc <_vfprintf_r+0x1434>
   11ff4:	11010613          	addi	a2,sp,272
   11ff8:	000b8593          	mv	a1,s7
   11ffc:	000c0513          	mv	a0,s8
   12000:	0000b097          	auipc	ra,0xb
   12004:	c40080e7          	jalr	-960(ra) # 1cc40 <__sprint_r>
   12008:	b20518e3          	bnez	a0,11b38 <_vfprintf_r+0xfa0>
   1200c:	12013783          	ld	a5,288(sp)
   12010:	11812703          	lw	a4,280(sp)
   12014:	19010313          	addi	t1,sp,400
   12018:	fb5ff06f          	j	11fcc <_vfprintf_r+0x1434>
   1201c:	0014f513          	andi	a0,s1,1
   12020:	b4051ae3          	bnez	a0,11b74 <_vfprintf_r+0xfdc>
   12024:	00c33423          	sd	a2,8(t1)
   12028:	13513023          	sd	s5,288(sp)
   1202c:	10e12c23          	sw	a4,280(sp)
   12030:	00700693          	li	a3,7
   12034:	1ce6cc63          	blt	a3,a4,1220c <_vfprintf_r+0x1674>
   12038:	0025869b          	addiw	a3,a1,2
   1203c:	02030313          	addi	t1,t1,32
   12040:	be1ff06f          	j	11c20 <_vfprintf_r+0x1088>
   12044:	bdb05ee3          	blez	s11,11c20 <_vfprintf_r+0x1088>
   12048:	01000613          	li	a2,16
   1204c:	01b64463          	blt	a2,s11,12054 <_vfprintf_r+0x14bc>
   12050:	27c0106f          	j	132cc <_vfprintf_r+0x2734>
   12054:	000228b7          	lui	a7,0x22
   12058:	c5888c93          	addi	s9,a7,-936 # 21c58 <zeroes.4519>
   1205c:	01000693          	li	a3,16
   12060:	00700d13          	li	s10,7
   12064:	0100006f          	j	12074 <_vfprintf_r+0x14dc>
   12068:	ff0d8d9b          	addiw	s11,s11,-16
   1206c:	17b6de63          	bge	a3,s11,121e8 <_vfprintf_r+0x1650>
   12070:	001b0e1b          	addiw	t3,s6,1
   12074:	010a8a93          	addi	s5,s5,16
   12078:	019a3023          	sd	s9,0(s4)
   1207c:	00da3423          	sd	a3,8(s4)
   12080:	13513023          	sd	s5,288(sp)
   12084:	000e0b1b          	sext.w	s6,t3
   12088:	11c12c23          	sw	t3,280(sp)
   1208c:	010a0a13          	addi	s4,s4,16
   12090:	fd6d5ce3          	bge	s10,s6,12068 <_vfprintf_r+0x14d0>
   12094:	11010613          	addi	a2,sp,272
   12098:	000b8593          	mv	a1,s7
   1209c:	000c0513          	mv	a0,s8
   120a0:	0000b097          	auipc	ra,0xb
   120a4:	ba0080e7          	jalr	-1120(ra) # 1cc40 <__sprint_r>
   120a8:	a80518e3          	bnez	a0,11b38 <_vfprintf_r+0xfa0>
   120ac:	12013a83          	ld	s5,288(sp)
   120b0:	11812b03          	lw	s6,280(sp)
   120b4:	19010a13          	addi	s4,sp,400
   120b8:	01000693          	li	a3,16
   120bc:	fadff06f          	j	12068 <_vfprintf_r+0x14d0>
   120c0:	0104f793          	andi	a5,s1,16
   120c4:	0c079a63          	bnez	a5,12198 <_vfprintf_r+0x1600>
   120c8:	0404f793          	andi	a5,s1,64
   120cc:	4e078a63          	beqz	a5,125c0 <_vfprintf_r+0x1a28>
   120d0:	00813783          	ld	a5,8(sp)
   120d4:	00079983          	lh	s3,0(a5)
   120d8:	00098793          	mv	a5,s3
   120dc:	d807d663          	bgez	a5,11668 <_vfprintf_r+0xad0>
   120e0:	02d00793          	li	a5,45
   120e4:	0cf10fa3          	sb	a5,223(sp)
   120e8:	413009b3          	neg	s3,s3
   120ec:	00e13423          	sd	a4,8(sp)
   120f0:	00048b13          	mv	s6,s1
   120f4:	00100793          	li	a5,1
   120f8:	ce8ff06f          	j	115e0 <_vfprintf_r+0xa48>
   120fc:	010b7793          	andi	a5,s6,16
   12100:	08079263          	bnez	a5,12184 <_vfprintf_r+0x15ec>
   12104:	00813683          	ld	a3,8(sp)
   12108:	040b7793          	andi	a5,s6,64
   1210c:	0006a983          	lw	s3,0(a3)
   12110:	4c078463          	beqz	a5,125d8 <_vfprintf_r+0x1a40>
   12114:	03099993          	slli	s3,s3,0x30
   12118:	0309d993          	srli	s3,s3,0x30
   1211c:	00e13423          	sd	a4,8(sp)
   12120:	00100793          	li	a5,1
   12124:	cb8ff06f          	j	115dc <_vfprintf_r+0xa44>
   12128:	0104f793          	andi	a5,s1,16
   1212c:	0a079263          	bnez	a5,121d0 <_vfprintf_r+0x1638>
   12130:	00813683          	ld	a3,8(sp)
   12134:	0404f793          	andi	a5,s1,64
   12138:	0006a983          	lw	s3,0(a3)
   1213c:	46078263          	beqz	a5,125a0 <_vfprintf_r+0x1a08>
   12140:	03099993          	slli	s3,s3,0x30
   12144:	0309d993          	srli	s3,s3,0x30
   12148:	d70ff06f          	j	116b8 <_vfprintf_r+0xb20>
   1214c:	0014f713          	andi	a4,s1,1
   12150:	00071463          	bnez	a4,12158 <_vfprintf_r+0x15c0>
   12154:	d81fe06f          	j	10ed4 <_vfprintf_r+0x33c>
   12158:	f8cff06f          	j	118e4 <_vfprintf_r+0xd4c>
   1215c:	000c8313          	mv	t1,s9
   12160:	cecff06f          	j	1164c <_vfprintf_r+0xab4>
   12164:	03000793          	li	a5,48
   12168:	18f105a3          	sb	a5,395(sp)
   1216c:	18b10d13          	addi	s10,sp,395
   12170:	c98ff06f          	j	11608 <_vfprintf_r+0xa70>
   12174:	00013783          	ld	a5,0(sp)
   12178:	00040d13          	mv	s10,s0
   1217c:	00f73023          	sd	a5,0(a4)
   12180:	da5fe06f          	j	10f24 <_vfprintf_r+0x38c>
   12184:	00813783          	ld	a5,8(sp)
   12188:	00e13423          	sd	a4,8(sp)
   1218c:	0007b983          	ld	s3,0(a5)
   12190:	00100793          	li	a5,1
   12194:	c48ff06f          	j	115dc <_vfprintf_r+0xa44>
   12198:	00813783          	ld	a5,8(sp)
   1219c:	0007b783          	ld	a5,0(a5)
   121a0:	00078993          	mv	s3,a5
   121a4:	cc0ff06f          	j	11664 <_vfprintf_r+0xacc>
   121a8:	00813783          	ld	a5,8(sp)
   121ac:	00f78c93          	addi	s9,a5,15
   121b0:	ff0cfc93          	andi	s9,s9,-16
   121b4:	000cb703          	ld	a4,0(s9)
   121b8:	008cb783          	ld	a5,8(s9)
   121bc:	010c8693          	addi	a3,s9,16
   121c0:	00d13423          	sd	a3,8(sp)
   121c4:	10e13023          	sd	a4,256(sp)
   121c8:	10f13423          	sd	a5,264(sp)
   121cc:	e85fe06f          	j	11050 <_vfprintf_r+0x4b8>
   121d0:	00813783          	ld	a5,8(sp)
   121d4:	0007b983          	ld	s3,0(a5)
   121d8:	ce0ff06f          	j	116b8 <_vfprintf_r+0xb20>
   121dc:	00068a1b          	sext.w	s4,a3
   121e0:	cd4048e3          	bgtz	s4,11eb0 <_vfprintf_r+0x1318>
   121e4:	cf5ff06f          	j	11ed8 <_vfprintf_r+0x1340>
   121e8:	001b069b          	addiw	a3,s6,1
   121ec:	010a0613          	addi	a2,s4,16
   121f0:	01ba8ab3          	add	s5,s5,s11
   121f4:	019a3023          	sd	s9,0(s4)
   121f8:	01ba3423          	sd	s11,8(s4)
   121fc:	13513023          	sd	s5,288(sp)
   12200:	10d12c23          	sw	a3,280(sp)
   12204:	00700713          	li	a4,7
   12208:	66d75663          	bge	a4,a3,12874 <_vfprintf_r+0x1cdc>
   1220c:	11010613          	addi	a2,sp,272
   12210:	000b8593          	mv	a1,s7
   12214:	000c0513          	mv	a0,s8
   12218:	0000b097          	auipc	ra,0xb
   1221c:	a28080e7          	jalr	-1496(ra) # 1cc40 <__sprint_r>
   12220:	90051ce3          	bnez	a0,11b38 <_vfprintf_r+0xfa0>
   12224:	11812683          	lw	a3,280(sp)
   12228:	12013a83          	ld	s5,288(sp)
   1222c:	1a010313          	addi	t1,sp,416
   12230:	0016869b          	addiw	a3,a3,1
   12234:	19010a13          	addi	s4,sp,400
   12238:	9e9ff06f          	j	11c20 <_vfprintf_r+0x1088>
   1223c:	000227b7          	lui	a5,0x22
   12240:	ab078793          	addi	a5,a5,-1360 # 21ab0 <__clzdi2+0xac>
   12244:	000c8313          	mv	t1,s9
   12248:	04f13423          	sd	a5,72(sp)
   1224c:	00813683          	ld	a3,8(sp)
   12250:	0204f793          	andi	a5,s1,32
   12254:	00868713          	addi	a4,a3,8
   12258:	14078063          	beqz	a5,12398 <_vfprintf_r+0x1800>
   1225c:	0006b983          	ld	s3,0(a3)
   12260:	0014f793          	andi	a5,s1,1
   12264:	00078e63          	beqz	a5,12280 <_vfprintf_r+0x16e8>
   12268:	00098c63          	beqz	s3,12280 <_vfprintf_r+0x16e8>
   1226c:	0024e493          	ori	s1,s1,2
   12270:	03000793          	li	a5,48
   12274:	0ef10023          	sb	a5,224(sp)
   12278:	0f5100a3          	sb	s5,225(sp)
   1227c:	0004849b          	sext.w	s1,s1
   12280:	bff4f493          	andi	s1,s1,-1025
   12284:	00048b1b          	sext.w	s6,s1
   12288:	00e13423          	sd	a4,8(sp)
   1228c:	00200793          	li	a5,2
   12290:	b4cff06f          	j	115dc <_vfprintf_r+0xa44>
   12294:	000c8313          	mv	t1,s9
   12298:	00048b13          	mv	s6,s1
   1229c:	b24ff06f          	j	115c0 <_vfprintf_r+0xa28>
   122a0:	000227b7          	lui	a5,0x22
   122a4:	a9878793          	addi	a5,a5,-1384 # 21a98 <__clzdi2+0x94>
   122a8:	000c8313          	mv	t1,s9
   122ac:	04f13423          	sd	a5,72(sp)
   122b0:	f9dff06f          	j	1224c <_vfprintf_r+0x16b4>
   122b4:	000c8313          	mv	t1,s9
   122b8:	becff06f          	j	116a4 <_vfprintf_r+0xb0c>
   122bc:	11010613          	addi	a2,sp,272
   122c0:	000b8593          	mv	a1,s7
   122c4:	000c0513          	mv	a0,s8
   122c8:	0000b097          	auipc	ra,0xb
   122cc:	978080e7          	jalr	-1672(ra) # 1cc40 <__sprint_r>
   122d0:	860514e3          	bnez	a0,11b38 <_vfprintf_r+0xfa0>
   122d4:	12013783          	ld	a5,288(sp)
   122d8:	19010313          	addi	t1,sp,400
   122dc:	e3cff06f          	j	11918 <_vfprintf_r+0xd80>
   122e0:	2004e493          	ori	s1,s1,512
   122e4:	00144e83          	lbu	t4,1(s0)
   122e8:	0004849b          	sext.w	s1,s1
   122ec:	00140413          	addi	s0,s0,1
   122f0:	a75fe06f          	j	10d64 <_vfprintf_r+0x1cc>
   122f4:	0204e493          	ori	s1,s1,32
   122f8:	00144e83          	lbu	t4,1(s0)
   122fc:	0004849b          	sext.w	s1,s1
   12300:	00140413          	addi	s0,s0,1
   12304:	a61fe06f          	j	10d64 <_vfprintf_r+0x1cc>
   12308:	00600793          	li	a5,6
   1230c:	000d8a1b          	sext.w	s4,s11
   12310:	5db7e663          	bltu	a5,s11,128dc <_vfprintf_r+0x1d44>
   12314:	00022837          	lui	a6,0x22
   12318:	000a0993          	mv	s3,s4
   1231c:	01913423          	sd	s9,8(sp)
   12320:	ac880d13          	addi	s10,a6,-1336 # 21ac8 <__clzdi2+0xc4>
   12324:	ac1fe06f          	j	10de4 <_vfprintf_r+0x24c>
   12328:	000228b7          	lui	a7,0x22
   1232c:	01000693          	li	a3,16
   12330:	11812703          	lw	a4,280(sp)
   12334:	c5888c93          	addi	s9,a7,-936 # 21c58 <zeroes.4519>
   12338:	01000d93          	li	s11,16
   1233c:	00700a93          	li	s5,7
   12340:	0146c863          	blt	a3,s4,12350 <_vfprintf_r+0x17b8>
   12344:	2cc0006f          	j	12610 <_vfprintf_r+0x1a78>
   12348:	ff0a0a1b          	addiw	s4,s4,-16
   1234c:	2d4dd263          	bge	s11,s4,12610 <_vfprintf_r+0x1a78>
   12350:	0017071b          	addiw	a4,a4,1
   12354:	01078793          	addi	a5,a5,16
   12358:	01933023          	sd	s9,0(t1)
   1235c:	01b33423          	sd	s11,8(t1)
   12360:	12f13023          	sd	a5,288(sp)
   12364:	10e12c23          	sw	a4,280(sp)
   12368:	01030313          	addi	t1,t1,16
   1236c:	fceadee3          	bge	s5,a4,12348 <_vfprintf_r+0x17b0>
   12370:	11010613          	addi	a2,sp,272
   12374:	000b8593          	mv	a1,s7
   12378:	000c0513          	mv	a0,s8
   1237c:	0000b097          	auipc	ra,0xb
   12380:	8c4080e7          	jalr	-1852(ra) # 1cc40 <__sprint_r>
   12384:	fa051a63          	bnez	a0,11b38 <_vfprintf_r+0xfa0>
   12388:	12013783          	ld	a5,288(sp)
   1238c:	11812703          	lw	a4,280(sp)
   12390:	19010313          	addi	t1,sp,400
   12394:	fb5ff06f          	j	12348 <_vfprintf_r+0x17b0>
   12398:	0104f793          	andi	a5,s1,16
   1239c:	0e078e63          	beqz	a5,12498 <_vfprintf_r+0x1900>
   123a0:	00813783          	ld	a5,8(sp)
   123a4:	0007b983          	ld	s3,0(a5)
   123a8:	eb9ff06f          	j	12260 <_vfprintf_r+0x16c8>
   123ac:	11010613          	addi	a2,sp,272
   123b0:	000b8593          	mv	a1,s7
   123b4:	000c0513          	mv	a0,s8
   123b8:	0000b097          	auipc	ra,0xb
   123bc:	888080e7          	jalr	-1912(ra) # 1cc40 <__sprint_r>
   123c0:	f6051c63          	bnez	a0,11b38 <_vfprintf_r+0xfa0>
   123c4:	12013a83          	ld	s5,288(sp)
   123c8:	11812703          	lw	a4,280(sp)
   123cc:	19010a13          	addi	s4,sp,400
   123d0:	fbcff06f          	j	11b8c <_vfprintf_r+0xff4>
   123d4:	11010613          	addi	a2,sp,272
   123d8:	000b8593          	mv	a1,s7
   123dc:	000c0513          	mv	a0,s8
   123e0:	0000b097          	auipc	ra,0xb
   123e4:	860080e7          	jalr	-1952(ra) # 1cc40 <__sprint_r>
   123e8:	f4051863          	bnez	a0,11b38 <_vfprintf_r+0xfa0>
   123ec:	12013a83          	ld	s5,288(sp)
   123f0:	11812b03          	lw	s6,280(sp)
   123f4:	19010a13          	addi	s4,sp,400
   123f8:	fc0ff06f          	j	11bb8 <_vfprintf_r+0x1020>
   123fc:	11812703          	lw	a4,280(sp)
   12400:	000226b7          	lui	a3,0x22
   12404:	ad068693          	addi	a3,a3,-1328 # 21ad0 <__clzdi2+0xcc>
   12408:	0017071b          	addiw	a4,a4,1
   1240c:	00d33023          	sd	a3,0(t1)
   12410:	00178793          	addi	a5,a5,1
   12414:	00100693          	li	a3,1
   12418:	00d33423          	sd	a3,8(t1)
   1241c:	10e12c23          	sw	a4,280(sp)
   12420:	0007069b          	sext.w	a3,a4
   12424:	12f13023          	sd	a5,288(sp)
   12428:	00700713          	li	a4,7
   1242c:	01030313          	addi	t1,t1,16
   12430:	44d74a63          	blt	a4,a3,12884 <_vfprintf_r+0x1cec>
   12434:	00060463          	beqz	a2,1243c <_vfprintf_r+0x18a4>
   12438:	ee9fe06f          	j	11320 <_vfprintf_r+0x788>
   1243c:	02013683          	ld	a3,32(sp)
   12440:	0014f713          	andi	a4,s1,1
   12444:	00e6e733          	or	a4,a3,a4
   12448:	00071463          	bnez	a4,12450 <_vfprintf_r+0x18b8>
   1244c:	a89fe06f          	j	10ed4 <_vfprintf_r+0x33c>
   12450:	04013703          	ld	a4,64(sp)
   12454:	03813683          	ld	a3,56(sp)
   12458:	00e33023          	sd	a4,0(t1)
   1245c:	11812703          	lw	a4,280(sp)
   12460:	00d787b3          	add	a5,a5,a3
   12464:	00d33423          	sd	a3,8(t1)
   12468:	0017071b          	addiw	a4,a4,1
   1246c:	0007069b          	sext.w	a3,a4
   12470:	10e12c23          	sw	a4,280(sp)
   12474:	12f13023          	sd	a5,288(sp)
   12478:	00700713          	li	a4,7
   1247c:	00d75463          	bge	a4,a3,12484 <_vfprintf_r+0x18ec>
   12480:	ed5fe06f          	j	11354 <_vfprintf_r+0x7bc>
   12484:	01030313          	addi	t1,t1,16
   12488:	efdfe06f          	j	11384 <_vfprintf_r+0x7ec>
   1248c:	00040c13          	mv	s8,s0
   12490:	00048b93          	mv	s7,s1
   12494:	ea4ff06f          	j	11b38 <_vfprintf_r+0xfa0>
   12498:	00813683          	ld	a3,8(sp)
   1249c:	0404f793          	andi	a5,s1,64
   124a0:	0006a983          	lw	s3,0(a3)
   124a4:	10078663          	beqz	a5,125b0 <_vfprintf_r+0x1a18>
   124a8:	03099993          	slli	s3,s3,0x30
   124ac:	0309d993          	srli	s3,s3,0x30
   124b0:	db1ff06f          	j	12260 <_vfprintf_r+0x16c8>
   124b4:	11010613          	addi	a2,sp,272
   124b8:	000b8593          	mv	a1,s7
   124bc:	000c0513          	mv	a0,s8
   124c0:	0000a097          	auipc	ra,0xa
   124c4:	780080e7          	jalr	1920(ra) # 1cc40 <__sprint_r>
   124c8:	e6051863          	bnez	a0,11b38 <_vfprintf_r+0xfa0>
   124cc:	12013783          	ld	a5,288(sp)
   124d0:	19010313          	addi	t1,sp,400
   124d4:	c04ff06f          	j	118d8 <_vfprintf_r+0xd40>
   124d8:	0017069b          	addiw	a3,a4,1
   124dc:	00068713          	mv	a4,a3
   124e0:	014787b3          	add	a5,a5,s4
   124e4:	01933023          	sd	s9,0(t1)
   124e8:	9d5fe06f          	j	10ebc <_vfprintf_r+0x324>
   124ec:	10013503          	ld	a0,256(sp)
   124f0:	10813583          	ld	a1,264(sp)
   124f4:	00000613          	li	a2,0
   124f8:	00000693          	li	a3,0
   124fc:	0000e097          	auipc	ra,0xe
   12500:	210080e7          	jalr	528(ra) # 2070c <__letf2>
   12504:	01013303          	ld	t1,16(sp)
   12508:	7e054663          	bltz	a0,12cf4 <_vfprintf_r+0x215c>
   1250c:	0df14783          	lbu	a5,223(sp)
   12510:	04700713          	li	a4,71
   12514:	39574c63          	blt	a4,s5,128ac <_vfprintf_r+0x1d14>
   12518:	00022837          	lui	a6,0x22
   1251c:	a7880d13          	addi	s10,a6,-1416 # 21a78 <__clzdi2+0x74>
   12520:	f7f4f493          	andi	s1,s1,-129
   12524:	00013823          	sd	zero,16(sp)
   12528:	02013823          	sd	zero,48(sp)
   1252c:	02013423          	sd	zero,40(sp)
   12530:	00013c23          	sd	zero,24(sp)
   12534:	0004849b          	sext.w	s1,s1
   12538:	00300993          	li	s3,3
   1253c:	00300a13          	li	s4,3
   12540:	00000d93          	li	s11,0
   12544:	00078463          	beqz	a5,1254c <_vfprintf_r+0x19b4>
   12548:	f45fe06f          	j	1148c <_vfprintf_r+0x8f4>
   1254c:	8adfe06f          	j	10df8 <_vfprintf_r+0x260>
   12550:	000d0513          	mv	a0,s10
   12554:	06613423          	sd	t1,104(sp)
   12558:	ffffe097          	auipc	ra,0xffffe
   1255c:	34c080e7          	jalr	844(ra) # 108a4 <strlen>
   12560:	00050a1b          	sext.w	s4,a0
   12564:	fffa4993          	not	s3,s4
   12568:	0df14783          	lbu	a5,223(sp)
   1256c:	43f9d993          	srai	s3,s3,0x3f
   12570:	013a79b3          	and	s3,s4,s3
   12574:	01913423          	sd	s9,8(sp)
   12578:	00013823          	sd	zero,16(sp)
   1257c:	02013823          	sd	zero,48(sp)
   12580:	02013423          	sd	zero,40(sp)
   12584:	00013c23          	sd	zero,24(sp)
   12588:	06813303          	ld	t1,104(sp)
   1258c:	0009899b          	sext.w	s3,s3
   12590:	00000d93          	li	s11,0
   12594:	00078463          	beqz	a5,1259c <_vfprintf_r+0x1a04>
   12598:	ef5fe06f          	j	1148c <_vfprintf_r+0x8f4>
   1259c:	85dfe06f          	j	10df8 <_vfprintf_r+0x260>
   125a0:	2004f793          	andi	a5,s1,512
   125a4:	3a078063          	beqz	a5,12944 <_vfprintf_r+0x1dac>
   125a8:	0ff9f993          	andi	s3,s3,255
   125ac:	90cff06f          	j	116b8 <_vfprintf_r+0xb20>
   125b0:	2004f793          	andi	a5,s1,512
   125b4:	38078263          	beqz	a5,12938 <_vfprintf_r+0x1da0>
   125b8:	0ff9f993          	andi	s3,s3,255
   125bc:	ca5ff06f          	j	12260 <_vfprintf_r+0x16c8>
   125c0:	2004f793          	andi	a5,s1,512
   125c4:	36078263          	beqz	a5,12928 <_vfprintf_r+0x1d90>
   125c8:	00813783          	ld	a5,8(sp)
   125cc:	00078983          	lb	s3,0(a5)
   125d0:	00098793          	mv	a5,s3
   125d4:	890ff06f          	j	11664 <_vfprintf_r+0xacc>
   125d8:	200b7793          	andi	a5,s6,512
   125dc:	32078c63          	beqz	a5,12914 <_vfprintf_r+0x1d7c>
   125e0:	0ff9f993          	andi	s3,s3,255
   125e4:	00e13423          	sd	a4,8(sp)
   125e8:	00100793          	li	a5,1
   125ec:	ff1fe06f          	j	115dc <_vfprintf_r+0xa44>
   125f0:	10813783          	ld	a5,264(sp)
   125f4:	3407ce63          	bltz	a5,12950 <_vfprintf_r+0x1db8>
   125f8:	0df14783          	lbu	a5,223(sp)
   125fc:	04700713          	li	a4,71
   12600:	095754e3          	bge	a4,s5,12e88 <_vfprintf_r+0x22f0>
   12604:	00022837          	lui	a6,0x22
   12608:	a9080d13          	addi	s10,a6,-1392 # 21a90 <__clzdi2+0x8c>
   1260c:	f15ff06f          	j	12520 <_vfprintf_r+0x1988>
   12610:	0017069b          	addiw	a3,a4,1
   12614:	014787b3          	add	a5,a5,s4
   12618:	01933023          	sd	s9,0(t1)
   1261c:	01433423          	sd	s4,8(t1)
   12620:	12f13023          	sd	a5,288(sp)
   12624:	10d12c23          	sw	a3,280(sp)
   12628:	00700713          	li	a4,7
   1262c:	01030313          	addi	t1,t1,16
   12630:	8cd750e3          	bge	a4,a3,11ef0 <_vfprintf_r+0x1358>
   12634:	11010613          	addi	a2,sp,272
   12638:	000b8593          	mv	a1,s7
   1263c:	000c0513          	mv	a0,s8
   12640:	0000a097          	auipc	ra,0xa
   12644:	600080e7          	jalr	1536(ra) # 1cc40 <__sprint_r>
   12648:	ce051863          	bnez	a0,11b38 <_vfprintf_r+0xfa0>
   1264c:	12013783          	ld	a5,288(sp)
   12650:	19010313          	addi	t1,sp,400
   12654:	89dff06f          	j	11ef0 <_vfprintf_r+0x1358>
   12658:	02013703          	ld	a4,32(sp)
   1265c:	06913423          	sd	s1,104(sp)
   12660:	03013483          	ld	s1,48(sp)
   12664:	03313823          	sd	s3,48(sp)
   12668:	02813983          	ld	s3,40(sp)
   1266c:	00ed0733          	add	a4,s10,a4
   12670:	00022eb7          	lui	t4,0x22
   12674:	00813c23          	sd	s0,24(sp)
   12678:	07213823          	sd	s2,112(sp)
   1267c:	03a13423          	sd	s10,40(sp)
   12680:	06013403          	ld	s0,96(sp)
   12684:	000b8d13          	mv	s10,s7
   12688:	07813903          	ld	s2,120(sp)
   1268c:	00700a13          	li	s4,7
   12690:	01000d93          	li	s11,16
   12694:	c58e8c93          	addi	s9,t4,-936 # 21c58 <zeroes.4519>
   12698:	00070b93          	mv	s7,a4
   1269c:	0a098063          	beqz	s3,1273c <_vfprintf_r+0x1ba4>
   126a0:	0a049063          	bnez	s1,12740 <_vfprintf_r+0x1ba8>
   126a4:	fff40413          	addi	s0,s0,-1
   126a8:	fff9899b          	addiw	s3,s3,-1
   126ac:	05813703          	ld	a4,88(sp)
   126b0:	012787b3          	add	a5,a5,s2
   126b4:	01233423          	sd	s2,8(t1)
   126b8:	00e33023          	sd	a4,0(t1)
   126bc:	11812703          	lw	a4,280(sp)
   126c0:	12f13023          	sd	a5,288(sp)
   126c4:	01030313          	addi	t1,t1,16
   126c8:	0017069b          	addiw	a3,a4,1
   126cc:	10d12c23          	sw	a3,280(sp)
   126d0:	10da4263          	blt	s4,a3,127d4 <_vfprintf_r+0x1c3c>
   126d4:	00044603          	lbu	a2,0(s0)
   126d8:	415b853b          	subw	a0,s7,s5
   126dc:	0006071b          	sext.w	a4,a2
   126e0:	00070693          	mv	a3,a4
   126e4:	00e55463          	bge	a0,a4,126ec <_vfprintf_r+0x1b54>
   126e8:	00050693          	mv	a3,a0
   126ec:	00068b1b          	sext.w	s6,a3
   126f0:	03605863          	blez	s6,12720 <_vfprintf_r+0x1b88>
   126f4:	11812703          	lw	a4,280(sp)
   126f8:	016787b3          	add	a5,a5,s6
   126fc:	01533023          	sd	s5,0(t1)
   12700:	0017061b          	addiw	a2,a4,1
   12704:	01633423          	sd	s6,8(t1)
   12708:	12f13023          	sd	a5,288(sp)
   1270c:	10c12c23          	sw	a2,280(sp)
   12710:	0eca4463          	blt	s4,a2,127f8 <_vfprintf_r+0x1c60>
   12714:	00044603          	lbu	a2,0(s0)
   12718:	01030313          	addi	t1,t1,16
   1271c:	0006071b          	sext.w	a4,a2
   12720:	fffb4513          	not	a0,s6
   12724:	43f55513          	srai	a0,a0,0x3f
   12728:	00ab76b3          	and	a3,s6,a0
   1272c:	40d70b3b          	subw	s6,a4,a3
   12730:	01604c63          	bgtz	s6,12748 <_vfprintf_r+0x1bb0>
   12734:	00ca8ab3          	add	s5,s5,a2
   12738:	f60994e3          	bnez	s3,126a0 <_vfprintf_r+0x1b08>
   1273c:	4a048263          	beqz	s1,12be0 <_vfprintf_r+0x2048>
   12740:	fff4849b          	addiw	s1,s1,-1
   12744:	f69ff06f          	j	126ac <_vfprintf_r+0x1b14>
   12748:	11812683          	lw	a3,280(sp)
   1274c:	016dc863          	blt	s11,s6,1275c <_vfprintf_r+0x1bc4>
   12750:	0580006f          	j	127a8 <_vfprintf_r+0x1c10>
   12754:	ff0b0b1b          	addiw	s6,s6,-16
   12758:	056dd863          	bge	s11,s6,127a8 <_vfprintf_r+0x1c10>
   1275c:	0016869b          	addiw	a3,a3,1
   12760:	01078793          	addi	a5,a5,16
   12764:	01933023          	sd	s9,0(t1)
   12768:	01b33423          	sd	s11,8(t1)
   1276c:	12f13023          	sd	a5,288(sp)
   12770:	10d12c23          	sw	a3,280(sp)
   12774:	01030313          	addi	t1,t1,16
   12778:	fcda5ee3          	bge	s4,a3,12754 <_vfprintf_r+0x1bbc>
   1277c:	11010613          	addi	a2,sp,272
   12780:	000d0593          	mv	a1,s10
   12784:	000c0513          	mv	a0,s8
   12788:	0000a097          	auipc	ra,0xa
   1278c:	4b8080e7          	jalr	1208(ra) # 1cc40 <__sprint_r>
   12790:	50051663          	bnez	a0,12c9c <_vfprintf_r+0x2104>
   12794:	ff0b0b1b          	addiw	s6,s6,-16
   12798:	12013783          	ld	a5,288(sp)
   1279c:	11812683          	lw	a3,280(sp)
   127a0:	19010313          	addi	t1,sp,400
   127a4:	fb6dcce3          	blt	s11,s6,1275c <_vfprintf_r+0x1bc4>
   127a8:	0016871b          	addiw	a4,a3,1
   127ac:	016787b3          	add	a5,a5,s6
   127b0:	01933023          	sd	s9,0(t1)
   127b4:	01633423          	sd	s6,8(t1)
   127b8:	12f13023          	sd	a5,288(sp)
   127bc:	10e12c23          	sw	a4,280(sp)
   127c0:	50ea4463          	blt	s4,a4,12cc8 <_vfprintf_r+0x2130>
   127c4:	00044603          	lbu	a2,0(s0)
   127c8:	01030313          	addi	t1,t1,16
   127cc:	00ca8ab3          	add	s5,s5,a2
   127d0:	f69ff06f          	j	12738 <_vfprintf_r+0x1ba0>
   127d4:	11010613          	addi	a2,sp,272
   127d8:	000d0593          	mv	a1,s10
   127dc:	000c0513          	mv	a0,s8
   127e0:	0000a097          	auipc	ra,0xa
   127e4:	460080e7          	jalr	1120(ra) # 1cc40 <__sprint_r>
   127e8:	4a051a63          	bnez	a0,12c9c <_vfprintf_r+0x2104>
   127ec:	12013783          	ld	a5,288(sp)
   127f0:	19010313          	addi	t1,sp,400
   127f4:	ee1ff06f          	j	126d4 <_vfprintf_r+0x1b3c>
   127f8:	11010613          	addi	a2,sp,272
   127fc:	000d0593          	mv	a1,s10
   12800:	000c0513          	mv	a0,s8
   12804:	0000a097          	auipc	ra,0xa
   12808:	43c080e7          	jalr	1084(ra) # 1cc40 <__sprint_r>
   1280c:	48051863          	bnez	a0,12c9c <_vfprintf_r+0x2104>
   12810:	00044603          	lbu	a2,0(s0)
   12814:	12013783          	ld	a5,288(sp)
   12818:	19010313          	addi	t1,sp,400
   1281c:	0006071b          	sext.w	a4,a2
   12820:	f01ff06f          	j	12720 <_vfprintf_r+0x1b88>
   12824:	07813783          	ld	a5,120(sp)
   12828:	05813583          	ld	a1,88(sp)
   1282c:	02d13023          	sd	a3,32(sp)
   12830:	40fd0d33          	sub	s10,s10,a5
   12834:	00078613          	mv	a2,a5
   12838:	000d0513          	mv	a0,s10
   1283c:	00613c23          	sd	t1,24(sp)
   12840:	01013823          	sd	a6,16(sp)
   12844:	00008097          	auipc	ra,0x8
   12848:	b24080e7          	jalr	-1244(ra) # 1a368 <strncpy>
   1284c:	01013803          	ld	a6,16(sp)
   12850:	0299d7b3          	divu	a5,s3,s1
   12854:	01813303          	ld	t1,24(sp)
   12858:	00184603          	lbu	a2,1(a6)
   1285c:	02013683          	ld	a3,32(sp)
   12860:	00000593          	li	a1,0
   12864:	00c03633          	snez	a2,a2
   12868:	00c80833          	add	a6,a6,a2
   1286c:	00900713          	li	a4,9
   12870:	fb9fe06f          	j	11828 <_vfprintf_r+0xc90>
   12874:	0016869b          	addiw	a3,a3,1
   12878:	01060313          	addi	t1,a2,16
   1287c:	00060a13          	mv	s4,a2
   12880:	ba0ff06f          	j	11c20 <_vfprintf_r+0x1088>
   12884:	11010613          	addi	a2,sp,272
   12888:	000b8593          	mv	a1,s7
   1288c:	000c0513          	mv	a0,s8
   12890:	0000a097          	auipc	ra,0xa
   12894:	3b0080e7          	jalr	944(ra) # 1cc40 <__sprint_r>
   12898:	aa051063          	bnez	a0,11b38 <_vfprintf_r+0xfa0>
   1289c:	0e812603          	lw	a2,232(sp)
   128a0:	12013783          	ld	a5,288(sp)
   128a4:	19010313          	addi	t1,sp,400
   128a8:	b8dff06f          	j	12434 <_vfprintf_r+0x189c>
   128ac:	00022837          	lui	a6,0x22
   128b0:	a8080d13          	addi	s10,a6,-1408 # 21a80 <__clzdi2+0x7c>
   128b4:	c6dff06f          	j	12520 <_vfprintf_r+0x1988>
   128b8:	11010613          	addi	a2,sp,272
   128bc:	000b8593          	mv	a1,s7
   128c0:	000c0513          	mv	a0,s8
   128c4:	0000a097          	auipc	ra,0xa
   128c8:	37c080e7          	jalr	892(ra) # 1cc40 <__sprint_r>
   128cc:	a6051663          	bnez	a0,11b38 <_vfprintf_r+0xfa0>
   128d0:	12013783          	ld	a5,288(sp)
   128d4:	19010313          	addi	t1,sp,400
   128d8:	e00ff06f          	j	11ed8 <_vfprintf_r+0x1340>
   128dc:	00600a13          	li	s4,6
   128e0:	a35ff06f          	j	12314 <_vfprintf_r+0x177c>
   128e4:	02013683          	ld	a3,32(sp)
   128e8:	00dd0833          	add	a6,s10,a3
   128ec:	40e6863b          	subw	a2,a3,a4
   128f0:	41580f3b          	subw	t5,a6,s5
   128f4:	00060a13          	mv	s4,a2
   128f8:	e8cf5e63          	bge	t5,a2,11f94 <_vfprintf_r+0x13fc>
   128fc:	000f0a1b          	sext.w	s4,t5
   12900:	e94ff06f          	j	11f94 <_vfprintf_r+0x13fc>
   12904:	00013783          	ld	a5,0(sp)
   12908:	00040d13          	mv	s10,s0
   1290c:	00f71023          	sh	a5,0(a4)
   12910:	e14fe06f          	j	10f24 <_vfprintf_r+0x38c>
   12914:	02099993          	slli	s3,s3,0x20
   12918:	0209d993          	srli	s3,s3,0x20
   1291c:	00e13423          	sd	a4,8(sp)
   12920:	00100793          	li	a5,1
   12924:	cb9fe06f          	j	115dc <_vfprintf_r+0xa44>
   12928:	00813783          	ld	a5,8(sp)
   1292c:	0007a983          	lw	s3,0(a5)
   12930:	00098793          	mv	a5,s3
   12934:	d31fe06f          	j	11664 <_vfprintf_r+0xacc>
   12938:	02099993          	slli	s3,s3,0x20
   1293c:	0209d993          	srli	s3,s3,0x20
   12940:	921ff06f          	j	12260 <_vfprintf_r+0x16c8>
   12944:	02099993          	slli	s3,s3,0x20
   12948:	0209d993          	srli	s3,s3,0x20
   1294c:	d6dfe06f          	j	116b8 <_vfprintf_r+0xb20>
   12950:	02d00793          	li	a5,45
   12954:	0cf10fa3          	sb	a5,223(sp)
   12958:	ca5ff06f          	j	125fc <_vfprintf_r+0x1a64>
   1295c:	11010613          	addi	a2,sp,272
   12960:	000b8593          	mv	a1,s7
   12964:	000c0513          	mv	a0,s8
   12968:	0000a097          	auipc	ra,0xa
   1296c:	2d8080e7          	jalr	728(ra) # 1cc40 <__sprint_r>
   12970:	dc8fe06f          	j	10f38 <_vfprintf_r+0x3a0>
   12974:	03000793          	li	a5,48
   12978:	0ef10023          	sb	a5,224(sp)
   1297c:	05800713          	li	a4,88
   12980:	0024e793          	ori	a5,s1,2
   12984:	0007879b          	sext.w	a5,a5
   12988:	0ee100a3          	sb	a4,225(sp)
   1298c:	02f13823          	sd	a5,48(sp)
   12990:	06300713          	li	a4,99
   12994:	00013823          	sd	zero,16(sp)
   12998:	12810d13          	addi	s10,sp,296
   1299c:	5fb74263          	blt	a4,s11,12f80 <_vfprintf_r+0x23e8>
   129a0:	10813a03          	ld	s4,264(sp)
   129a4:	fdfaf713          	andi	a4,s5,-33
   129a8:	1024e493          	ori	s1,s1,258
   129ac:	02e13423          	sd	a4,40(sp)
   129b0:	06013423          	sd	zero,104(sp)
   129b4:	10013b03          	ld	s6,256(sp)
   129b8:	0004849b          	sext.w	s1,s1
   129bc:	2e0a4a63          	bltz	s4,12cb0 <_vfprintf_r+0x2118>
   129c0:	06100793          	li	a5,97
   129c4:	04fa82e3          	beq	s5,a5,13208 <_vfprintf_r+0x2670>
   129c8:	04100793          	li	a5,65
   129cc:	00fa8463          	beq	s5,a5,129d4 <_vfprintf_r+0x1e3c>
   129d0:	f10fe06f          	j	110e0 <_vfprintf_r+0x548>
   129d4:	000a0593          	mv	a1,s4
   129d8:	000b0513          	mv	a0,s6
   129dc:	02613023          	sd	t1,32(sp)
   129e0:	0000f097          	auipc	ra,0xf
   129e4:	e6c080e7          	jalr	-404(ra) # 2184c <__trunctfdf2>
   129e8:	0e810593          	addi	a1,sp,232
   129ec:	00007097          	auipc	ra,0x7
   129f0:	44c080e7          	jalr	1100(ra) # 19e38 <frexp>
   129f4:	0000f097          	auipc	ra,0xf
   129f8:	d64080e7          	jalr	-668(ra) # 21758 <__extenddftf2>
   129fc:	00fff7b7          	lui	a5,0xfff
   12a00:	02679693          	slli	a3,a5,0x26
   12a04:	00000613          	li	a2,0
   12a08:	0000e097          	auipc	ra,0xe
   12a0c:	de4080e7          	jalr	-540(ra) # 207ec <__multf3>
   12a10:	00000613          	li	a2,0
   12a14:	00000693          	li	a3,0
   12a18:	00050a13          	mv	s4,a0
   12a1c:	00b13c23          	sd	a1,24(sp)
   12a20:	0000e097          	auipc	ra,0xe
   12a24:	b80080e7          	jalr	-1152(ra) # 205a0 <__eqtf2>
   12a28:	01813f03          	ld	t5,24(sp)
   12a2c:	02013303          	ld	t1,32(sp)
   12a30:	00051663          	bnez	a0,12a3c <_vfprintf_r+0x1ea4>
   12a34:	00100793          	li	a5,1
   12a38:	0ef12423          	sw	a5,232(sp)
   12a3c:	000227b7          	lui	a5,0x22
   12a40:	a9878793          	addi	a5,a5,-1384 # 21a98 <__clzdi2+0x94>
   12a44:	00f13c23          	sd	a5,24(sp)
   12a48:	020d9793          	slli	a5,s11,0x20
   12a4c:	0207d793          	srli	a5,a5,0x20
   12a50:	00178793          	addi	a5,a5,1
   12a54:	00fd07b3          	add	a5,s10,a5
   12a58:	01bd073b          	addw	a4,s10,s11
   12a5c:	06813823          	sd	s0,112(sp)
   12a60:	09513c23          	sd	s5,152(sp)
   12a64:	0a913023          	sd	s1,160(sp)
   12a68:	0b213423          	sd	s2,168(sp)
   12a6c:	0d713023          	sd	s7,192(sp)
   12a70:	01813483          	ld	s1,24(sp)
   12a74:	00078413          	mv	s0,a5
   12a78:	0a613823          	sd	t1,176(sp)
   12a7c:	000d0a93          	mv	s5,s10
   12a80:	0b813c23          	sd	s8,184(sp)
   12a84:	0da13423          	sd	s10,200(sp)
   12a88:	000a0b13          	mv	s6,s4
   12a8c:	000f0b93          	mv	s7,t5
   12a90:	00070913          	mv	s2,a4
   12a94:	0180006f          	j	12aac <_vfprintf_r+0x1f14>
   12a98:	00000613          	li	a2,0
   12a9c:	00000693          	li	a3,0
   12aa0:	0000e097          	auipc	ra,0xe
   12aa4:	b00080e7          	jalr	-1280(ra) # 205a0 <__eqtf2>
   12aa8:	64050463          	beqz	a0,130f0 <_vfprintf_r+0x2558>
   12aac:	08013683          	ld	a3,128(sp)
   12ab0:	00000613          	li	a2,0
   12ab4:	000b0513          	mv	a0,s6
   12ab8:	000b8593          	mv	a1,s7
   12abc:	0000e097          	auipc	ra,0xe
   12ac0:	d30080e7          	jalr	-720(ra) # 207ec <__multf3>
   12ac4:	00058993          	mv	s3,a1
   12ac8:	00050a13          	mv	s4,a0
   12acc:	0000f097          	auipc	ra,0xf
   12ad0:	b94080e7          	jalr	-1132(ra) # 21660 <__fixtfsi>
   12ad4:	00050c1b          	sext.w	s8,a0
   12ad8:	000c0513          	mv	a0,s8
   12adc:	0000f097          	auipc	ra,0xf
   12ae0:	bec080e7          	jalr	-1044(ra) # 216c8 <__floatsitf>
   12ae4:	00058693          	mv	a3,a1
   12ae8:	00050613          	mv	a2,a0
   12aec:	00098593          	mv	a1,s3
   12af0:	000a0513          	mv	a0,s4
   12af4:	0000e097          	auipc	ra,0xe
   12af8:	390080e7          	jalr	912(ra) # 20e84 <__subtf3>
   12afc:	018486b3          	add	a3,s1,s8
   12b00:	0006c683          	lbu	a3,0(a3)
   12b04:	000a8a13          	mv	s4,s5
   12b08:	001a8a93          	addi	s5,s5,1
   12b0c:	feda8fa3          	sb	a3,-1(s5)
   12b10:	00050c93          	mv	s9,a0
   12b14:	00058d13          	mv	s10,a1
   12b18:	00050b13          	mv	s6,a0
   12b1c:	00058b93          	mv	s7,a1
   12b20:	415909bb          	subw	s3,s2,s5
   12b24:	f7541ae3          	bne	s0,s5,12a98 <_vfprintf_r+0x1f00>
   12b28:	000c0993          	mv	s3,s8
   12b2c:	000a8c93          	mv	s9,s5
   12b30:	07013403          	ld	s0,112(sp)
   12b34:	0a013483          	ld	s1,160(sp)
   12b38:	0a813903          	ld	s2,168(sp)
   12b3c:	0b013303          	ld	t1,176(sp)
   12b40:	0b813c03          	ld	s8,184(sp)
   12b44:	0c013b83          	ld	s7,192(sp)
   12b48:	09813a83          	ld	s5,152(sp)
   12b4c:	0c813d03          	ld	s10,200(sp)
   12b50:	fff00793          	li	a5,-1
   12b54:	00050893          	mv	a7,a0
   12b58:	00058b13          	mv	s6,a1
   12b5c:	02f13023          	sd	a5,32(sp)
   12b60:	08813683          	ld	a3,136(sp)
   12b64:	00000613          	li	a2,0
   12b68:	00088513          	mv	a0,a7
   12b6c:	000b0593          	mv	a1,s6
   12b70:	06613823          	sd	t1,112(sp)
   12b74:	09113c23          	sd	a7,152(sp)
   12b78:	0000e097          	auipc	ra,0xe
   12b7c:	ab4080e7          	jalr	-1356(ra) # 2062c <__getf2>
   12b80:	07013303          	ld	t1,112(sp)
   12b84:	48a04063          	bgtz	a0,13004 <_vfprintf_r+0x246c>
   12b88:	09813883          	ld	a7,152(sp)
   12b8c:	08813683          	ld	a3,136(sp)
   12b90:	00000613          	li	a2,0
   12b94:	00088513          	mv	a0,a7
   12b98:	000b0593          	mv	a1,s6
   12b9c:	0000e097          	auipc	ra,0xe
   12ba0:	a04080e7          	jalr	-1532(ra) # 205a0 <__eqtf2>
   12ba4:	07013303          	ld	t1,112(sp)
   12ba8:	00051663          	bnez	a0,12bb4 <_vfprintf_r+0x201c>
   12bac:	0019f993          	andi	s3,s3,1
   12bb0:	44099a63          	bnez	s3,13004 <_vfprintf_r+0x246c>
   12bb4:	02013783          	ld	a5,32(sp)
   12bb8:	03000693          	li	a3,48
   12bbc:	00178713          	addi	a4,a5,1
   12bc0:	00ec8733          	add	a4,s9,a4
   12bc4:	0007c863          	bltz	a5,12bd4 <_vfprintf_r+0x203c>
   12bc8:	001c8c93          	addi	s9,s9,1
   12bcc:	fedc8fa3          	sb	a3,-1(s9)
   12bd0:	ff971ce3          	bne	a4,s9,12bc8 <_vfprintf_r+0x2030>
   12bd4:	41ac87bb          	subw	a5,s9,s10
   12bd8:	02f13023          	sd	a5,32(sp)
   12bdc:	db0fe06f          	j	1118c <_vfprintf_r+0x5f4>
   12be0:	02013703          	ld	a4,32(sp)
   12be4:	000d0b93          	mv	s7,s10
   12be8:	02813d03          	ld	s10,40(sp)
   12bec:	06813023          	sd	s0,96(sp)
   12bf0:	06813483          	ld	s1,104(sp)
   12bf4:	00ed0733          	add	a4,s10,a4
   12bf8:	01813403          	ld	s0,24(sp)
   12bfc:	07013903          	ld	s2,112(sp)
   12c00:	03013983          	ld	s3,48(sp)
   12c04:	af577e63          	bgeu	a4,s5,11f00 <_vfprintf_r+0x1368>
   12c08:	00070a93          	mv	s5,a4
   12c0c:	af4ff06f          	j	11f00 <_vfprintf_r+0x1368>
   12c10:	01813703          	ld	a4,24(sp)
   12c14:	ffd00793          	li	a5,-3
   12c18:	00f74463          	blt	a4,a5,12c20 <_vfprintf_r+0x2088>
   12c1c:	00edda63          	bge	s11,a4,12c30 <_vfprintf_r+0x2098>
   12c20:	ffea8a9b          	addiw	s5,s5,-2
   12c24:	fdfaf793          	andi	a5,s5,-33
   12c28:	02f13423          	sd	a5,40(sp)
   12c2c:	d88fe06f          	j	111b4 <_vfprintf_r+0x61c>
   12c30:	02013783          	ld	a5,32(sp)
   12c34:	01813703          	ld	a4,24(sp)
   12c38:	24f74e63          	blt	a4,a5,12e94 <_vfprintf_r+0x22fc>
   12c3c:	03013783          	ld	a5,48(sp)
   12c40:	00070a13          	mv	s4,a4
   12c44:	0017f793          	andi	a5,a5,1
   12c48:	00078663          	beqz	a5,12c54 <_vfprintf_r+0x20bc>
   12c4c:	03813783          	ld	a5,56(sp)
   12c50:	00e78a3b          	addw	s4,a5,a4
   12c54:	03013783          	ld	a5,48(sp)
   12c58:	4007f793          	andi	a5,a5,1024
   12c5c:	00078663          	beqz	a5,12c68 <_vfprintf_r+0x20d0>
   12c60:	01813783          	ld	a5,24(sp)
   12c64:	4ef04263          	bgtz	a5,13148 <_vfprintf_r+0x25b0>
   12c68:	fffa4993          	not	s3,s4
   12c6c:	43f9d993          	srai	s3,s3,0x3f
   12c70:	013a79b3          	and	s3,s4,s3
   12c74:	0009899b          	sext.w	s3,s3
   12c78:	06700a93          	li	s5,103
   12c7c:	02013823          	sd	zero,48(sp)
   12c80:	02013423          	sd	zero,40(sp)
   12c84:	e58fe06f          	j	112dc <_vfprintf_r+0x744>
   12c88:	0df14783          	lbu	a5,223(sp)
   12c8c:	00000d93          	li	s11,0
   12c90:	00078463          	beqz	a5,12c98 <_vfprintf_r+0x2100>
   12c94:	ff8fe06f          	j	1148c <_vfprintf_r+0x8f4>
   12c98:	960fe06f          	j	10df8 <_vfprintf_r+0x260>
   12c9c:	000d0b93          	mv	s7,s10
   12ca0:	e99fe06f          	j	11b38 <_vfprintf_r+0xfa0>
   12ca4:	02913823          	sd	s1,48(sp)
   12ca8:	00013823          	sd	zero,16(sp)
   12cac:	00098493          	mv	s1,s3
   12cb0:	fff00793          	li	a5,-1
   12cb4:	03f79793          	slli	a5,a5,0x3f
   12cb8:	00fa4a33          	xor	s4,s4,a5
   12cbc:	02d00793          	li	a5,45
   12cc0:	06f13423          	sd	a5,104(sp)
   12cc4:	cfdff06f          	j	129c0 <_vfprintf_r+0x1e28>
   12cc8:	11010613          	addi	a2,sp,272
   12ccc:	000d0593          	mv	a1,s10
   12cd0:	000c0513          	mv	a0,s8
   12cd4:	0000a097          	auipc	ra,0xa
   12cd8:	f6c080e7          	jalr	-148(ra) # 1cc40 <__sprint_r>
   12cdc:	fc0510e3          	bnez	a0,12c9c <_vfprintf_r+0x2104>
   12ce0:	00044603          	lbu	a2,0(s0)
   12ce4:	12013783          	ld	a5,288(sp)
   12ce8:	19010313          	addi	t1,sp,400
   12cec:	00ca8ab3          	add	s5,s5,a2
   12cf0:	a49ff06f          	j	12738 <_vfprintf_r+0x1ba0>
   12cf4:	02d00793          	li	a5,45
   12cf8:	0cf10fa3          	sb	a5,223(sp)
   12cfc:	815ff06f          	j	12510 <_vfprintf_r+0x1978>
   12d00:	0e810793          	addi	a5,sp,232
   12d04:	000d8713          	mv	a4,s11
   12d08:	0f810893          	addi	a7,sp,248
   12d0c:	0ec10813          	addi	a6,sp,236
   12d10:	00200693          	li	a3,2
   12d14:	000b0593          	mv	a1,s6
   12d18:	000a0613          	mv	a2,s4
   12d1c:	000c0513          	mv	a0,s8
   12d20:	00003097          	auipc	ra,0x3
   12d24:	6e0080e7          	jalr	1760(ra) # 16400 <_ldtoa_r>
   12d28:	02813703          	ld	a4,40(sp)
   12d2c:	04700793          	li	a5,71
   12d30:	01813303          	ld	t1,24(sp)
   12d34:	00050d13          	mv	s10,a0
   12d38:	08f71063          	bne	a4,a5,12db8 <_vfprintf_r+0x2220>
   12d3c:	03013783          	ld	a5,48(sp)
   12d40:	0017f793          	andi	a5,a5,1
   12d44:	2a079863          	bnez	a5,12ff4 <_vfprintf_r+0x245c>
   12d48:	04700793          	li	a5,71
   12d4c:	0f813683          	ld	a3,248(sp)
   12d50:	02f13423          	sd	a5,40(sp)
   12d54:	c30fe06f          	j	11184 <_vfprintf_r+0x5ec>
   12d58:	11010613          	addi	a2,sp,272
   12d5c:	000b8593          	mv	a1,s7
   12d60:	000c0513          	mv	a0,s8
   12d64:	0000a097          	auipc	ra,0xa
   12d68:	edc080e7          	jalr	-292(ra) # 1cc40 <__sprint_r>
   12d6c:	00050463          	beqz	a0,12d74 <_vfprintf_r+0x21dc>
   12d70:	dc9fe06f          	j	11b38 <_vfprintf_r+0xfa0>
   12d74:	0e812703          	lw	a4,232(sp)
   12d78:	12013783          	ld	a5,288(sp)
   12d7c:	19010313          	addi	t1,sp,400
   12d80:	9c8ff06f          	j	11f48 <_vfprintf_r+0x13b0>
   12d84:	0f810893          	addi	a7,sp,248
   12d88:	0ec10813          	addi	a6,sp,236
   12d8c:	0e810793          	addi	a5,sp,232
   12d90:	000d8713          	mv	a4,s11
   12d94:	00300693          	li	a3,3
   12d98:	000b0593          	mv	a1,s6
   12d9c:	000a0613          	mv	a2,s4
   12da0:	000c0513          	mv	a0,s8
   12da4:	00613c23          	sd	t1,24(sp)
   12da8:	00003097          	auipc	ra,0x3
   12dac:	658080e7          	jalr	1624(ra) # 16400 <_ldtoa_r>
   12db0:	01813303          	ld	t1,24(sp)
   12db4:	00050d13          	mv	s10,a0
   12db8:	02813703          	ld	a4,40(sp)
   12dbc:	04600793          	li	a5,70
   12dc0:	01bd09b3          	add	s3,s10,s11
   12dc4:	00f70463          	beq	a4,a5,12dcc <_vfprintf_r+0x2234>
   12dc8:	b74fe06f          	j	1113c <_vfprintf_r+0x5a4>
   12dcc:	000d4703          	lbu	a4,0(s10)
   12dd0:	03000793          	li	a5,48
   12dd4:	00f70863          	beq	a4,a5,12de4 <_vfprintf_r+0x224c>
   12dd8:	0e812703          	lw	a4,232(sp)
   12ddc:	00e989b3          	add	s3,s3,a4
   12de0:	b5cfe06f          	j	1113c <_vfprintf_r+0x5a4>
   12de4:	00000613          	li	a2,0
   12de8:	00000693          	li	a3,0
   12dec:	000b0513          	mv	a0,s6
   12df0:	000a0593          	mv	a1,s4
   12df4:	00613c23          	sd	t1,24(sp)
   12df8:	0000d097          	auipc	ra,0xd
   12dfc:	7a8080e7          	jalr	1960(ra) # 205a0 <__eqtf2>
   12e00:	01813303          	ld	t1,24(sp)
   12e04:	fc050ae3          	beqz	a0,12dd8 <_vfprintf_r+0x2240>
   12e08:	00100793          	li	a5,1
   12e0c:	41b7873b          	subw	a4,a5,s11
   12e10:	0ee12423          	sw	a4,232(sp)
   12e14:	00e989b3          	add	s3,s3,a4
   12e18:	b24fe06f          	j	1113c <_vfprintf_r+0x5a4>
   12e1c:	0df14783          	lbu	a5,223(sp)
   12e20:	01913423          	sd	s9,8(sp)
   12e24:	02013823          	sd	zero,48(sp)
   12e28:	02013423          	sd	zero,40(sp)
   12e2c:	00013c23          	sd	zero,24(sp)
   12e30:	000d8993          	mv	s3,s11
   12e34:	000d8a13          	mv	s4,s11
   12e38:	00000d93          	li	s11,0
   12e3c:	00078463          	beqz	a5,12e44 <_vfprintf_r+0x22ac>
   12e40:	e4cfe06f          	j	1148c <_vfprintf_r+0x8f4>
   12e44:	fb5fd06f          	j	10df8 <_vfprintf_r+0x260>
   12e48:	03013783          	ld	a5,48(sp)
   12e4c:	01813703          	ld	a4,24(sp)
   12e50:	0017f793          	andi	a5,a5,1
   12e54:	00fde7b3          	or	a5,s11,a5
   12e58:	42e05c63          	blez	a4,13290 <_vfprintf_r+0x26f8>
   12e5c:	2c079c63          	bnez	a5,13134 <_vfprintf_r+0x259c>
   12e60:	01813a03          	ld	s4,24(sp)
   12e64:	06600a93          	li	s5,102
   12e68:	03013783          	ld	a5,48(sp)
   12e6c:	4007f793          	andi	a5,a5,1024
   12e70:	2c079e63          	bnez	a5,1314c <_vfprintf_r+0x25b4>
   12e74:	fffa4993          	not	s3,s4
   12e78:	43f9d993          	srai	s3,s3,0x3f
   12e7c:	013a79b3          	and	s3,s4,s3
   12e80:	0009899b          	sext.w	s3,s3
   12e84:	df9ff06f          	j	12c7c <_vfprintf_r+0x20e4>
   12e88:	00022837          	lui	a6,0x22
   12e8c:	a8880d13          	addi	s10,a6,-1400 # 21a88 <__clzdi2+0x84>
   12e90:	e90ff06f          	j	12520 <_vfprintf_r+0x1988>
   12e94:	02013703          	ld	a4,32(sp)
   12e98:	03813783          	ld	a5,56(sp)
   12e9c:	06700a93          	li	s5,103
   12ea0:	00e78a3b          	addw	s4,a5,a4
   12ea4:	01813703          	ld	a4,24(sp)
   12ea8:	fce040e3          	bgtz	a4,12e68 <_vfprintf_r+0x22d0>
   12eac:	40ea07bb          	subw	a5,s4,a4
   12eb0:	0017879b          	addiw	a5,a5,1
   12eb4:	00078a1b          	sext.w	s4,a5
   12eb8:	fffa4993          	not	s3,s4
   12ebc:	43f9d993          	srai	s3,s3,0x3f
   12ec0:	0137f7b3          	and	a5,a5,s3
   12ec4:	0007899b          	sext.w	s3,a5
   12ec8:	db5ff06f          	j	12c7c <_vfprintf_r+0x20e4>
   12ecc:	11010613          	addi	a2,sp,272
   12ed0:	000b8593          	mv	a1,s7
   12ed4:	000c0513          	mv	a0,s8
   12ed8:	0000a097          	auipc	ra,0xa
   12edc:	d68080e7          	jalr	-664(ra) # 1cc40 <__sprint_r>
   12ee0:	00050463          	beqz	a0,12ee8 <_vfprintf_r+0x2350>
   12ee4:	c55fe06f          	j	11b38 <_vfprintf_r+0xfa0>
   12ee8:	0e812603          	lw	a2,232(sp)
   12eec:	02013703          	ld	a4,32(sp)
   12ef0:	12013783          	ld	a5,288(sp)
   12ef4:	19010313          	addi	t1,sp,400
   12ef8:	40c7063b          	subw	a2,a4,a2
   12efc:	898ff06f          	j	11f94 <_vfprintf_r+0x13fc>
   12f00:	000228b7          	lui	a7,0x22
   12f04:	ff000713          	li	a4,-16
   12f08:	40c00b3b          	negw	s6,a2
   12f0c:	c5888c93          	addi	s9,a7,-936 # 21c58 <zeroes.4519>
   12f10:	01000a13          	li	s4,16
   12f14:	00700a93          	li	s5,7
   12f18:	00e64863          	blt	a2,a4,12f28 <_vfprintf_r+0x2390>
   12f1c:	08c0006f          	j	12fa8 <_vfprintf_r+0x2410>
   12f20:	ff0b0b1b          	addiw	s6,s6,-16
   12f24:	096a5263          	bge	s4,s6,12fa8 <_vfprintf_r+0x2410>
   12f28:	0016869b          	addiw	a3,a3,1
   12f2c:	01078793          	addi	a5,a5,16
   12f30:	01933023          	sd	s9,0(t1)
   12f34:	01433423          	sd	s4,8(t1)
   12f38:	12f13023          	sd	a5,288(sp)
   12f3c:	10d12c23          	sw	a3,280(sp)
   12f40:	01030313          	addi	t1,t1,16
   12f44:	fcdadee3          	bge	s5,a3,12f20 <_vfprintf_r+0x2388>
   12f48:	11010613          	addi	a2,sp,272
   12f4c:	000b8593          	mv	a1,s7
   12f50:	000c0513          	mv	a0,s8
   12f54:	0000a097          	auipc	ra,0xa
   12f58:	cec080e7          	jalr	-788(ra) # 1cc40 <__sprint_r>
   12f5c:	00050463          	beqz	a0,12f64 <_vfprintf_r+0x23cc>
   12f60:	bd9fe06f          	j	11b38 <_vfprintf_r+0xfa0>
   12f64:	12013783          	ld	a5,288(sp)
   12f68:	11812683          	lw	a3,280(sp)
   12f6c:	19010313          	addi	t1,sp,400
   12f70:	fb1ff06f          	j	12f20 <_vfprintf_r+0x2388>
   12f74:	fff00793          	li	a5,-1
   12f78:	00f13023          	sd	a5,0(sp)
   12f7c:	fcdfd06f          	j	10f48 <_vfprintf_r+0x3b0>
   12f80:	001d859b          	addiw	a1,s11,1
   12f84:	000c0513          	mv	a0,s8
   12f88:	00613823          	sd	t1,16(sp)
   12f8c:	00005097          	auipc	ra,0x5
   12f90:	af8080e7          	jalr	-1288(ra) # 17a84 <_malloc_r>
   12f94:	01013303          	ld	t1,16(sp)
   12f98:	00050d13          	mv	s10,a0
   12f9c:	38050063          	beqz	a0,1331c <_vfprintf_r+0x2784>
   12fa0:	00a13823          	sd	a0,16(sp)
   12fa4:	9fdff06f          	j	129a0 <_vfprintf_r+0x1e08>
   12fa8:	0016869b          	addiw	a3,a3,1
   12fac:	016787b3          	add	a5,a5,s6
   12fb0:	01933023          	sd	s9,0(t1)
   12fb4:	01633423          	sd	s6,8(t1)
   12fb8:	12f13023          	sd	a5,288(sp)
   12fbc:	10d12c23          	sw	a3,280(sp)
   12fc0:	00700713          	li	a4,7
   12fc4:	ccd75063          	bge	a4,a3,12484 <_vfprintf_r+0x18ec>
   12fc8:	11010613          	addi	a2,sp,272
   12fcc:	000b8593          	mv	a1,s7
   12fd0:	000c0513          	mv	a0,s8
   12fd4:	0000a097          	auipc	ra,0xa
   12fd8:	c6c080e7          	jalr	-916(ra) # 1cc40 <__sprint_r>
   12fdc:	00050463          	beqz	a0,12fe4 <_vfprintf_r+0x244c>
   12fe0:	b59fe06f          	j	11b38 <_vfprintf_r+0xfa0>
   12fe4:	12013783          	ld	a5,288(sp)
   12fe8:	11812683          	lw	a3,280(sp)
   12fec:	19010313          	addi	t1,sp,400
   12ff0:	b94fe06f          	j	11384 <_vfprintf_r+0x7ec>
   12ff4:	04700793          	li	a5,71
   12ff8:	01bd09b3          	add	s3,s10,s11
   12ffc:	02f13423          	sd	a5,40(sp)
   13000:	93cfe06f          	j	1113c <_vfprintf_r+0x5a4>
   13004:	01813783          	ld	a5,24(sp)
   13008:	0f413c23          	sd	s4,248(sp)
   1300c:	fffcc683          	lbu	a3,-1(s9)
   13010:	00f7c603          	lbu	a2,15(a5)
   13014:	000c8713          	mv	a4,s9
   13018:	02d61063          	bne	a2,a3,13038 <_vfprintf_r+0x24a0>
   1301c:	03000593          	li	a1,48
   13020:	feb70fa3          	sb	a1,-1(a4)
   13024:	0f813703          	ld	a4,248(sp)
   13028:	fff70793          	addi	a5,a4,-1
   1302c:	0ef13c23          	sd	a5,248(sp)
   13030:	fff74683          	lbu	a3,-1(a4)
   13034:	fed606e3          	beq	a2,a3,13020 <_vfprintf_r+0x2488>
   13038:	0016861b          	addiw	a2,a3,1
   1303c:	03900593          	li	a1,57
   13040:	0ff67613          	andi	a2,a2,255
   13044:	00b68663          	beq	a3,a1,13050 <_vfprintf_r+0x24b8>
   13048:	fec70fa3          	sb	a2,-1(a4)
   1304c:	b89ff06f          	j	12bd4 <_vfprintf_r+0x203c>
   13050:	01813783          	ld	a5,24(sp)
   13054:	00a7c603          	lbu	a2,10(a5)
   13058:	fec70fa3          	sb	a2,-1(a4)
   1305c:	b79ff06f          	j	12bd4 <_vfprintf_r+0x203c>
   13060:	00048b13          	mv	s6,s1
   13064:	d39fe06f          	j	11d9c <_vfprintf_r+0x1204>
   13068:	03000793          	li	a5,48
   1306c:	0ef10023          	sb	a5,224(sp)
   13070:	07800713          	li	a4,120
   13074:	90dff06f          	j	12980 <_vfprintf_r+0x1de8>
   13078:	00f72023          	sw	a5,0(a4)
   1307c:	00040d13          	mv	s10,s0
   13080:	ea5fd06f          	j	10f24 <_vfprintf_r+0x38c>
   13084:	000d9463          	bnez	s11,1308c <_vfprintf_r+0x24f4>
   13088:	00100d93          	li	s11,1
   1308c:	10813a03          	ld	s4,264(sp)
   13090:	1004e993          	ori	s3,s1,256
   13094:	10013b03          	ld	s6,256(sp)
   13098:	0009899b          	sext.w	s3,s3
   1309c:	c00a44e3          	bltz	s4,12ca4 <_vfprintf_r+0x210c>
   130a0:	0f810893          	addi	a7,sp,248
   130a4:	0ec10813          	addi	a6,sp,236
   130a8:	0e810793          	addi	a5,sp,232
   130ac:	000d8713          	mv	a4,s11
   130b0:	00200693          	li	a3,2
   130b4:	000b0593          	mv	a1,s6
   130b8:	000a0613          	mv	a2,s4
   130bc:	000c0513          	mv	a0,s8
   130c0:	00613c23          	sd	t1,24(sp)
   130c4:	00003097          	auipc	ra,0x3
   130c8:	33c080e7          	jalr	828(ra) # 16400 <_ldtoa_r>
   130cc:	01813303          	ld	t1,24(sp)
   130d0:	02913823          	sd	s1,48(sp)
   130d4:	00050d13          	mv	s10,a0
   130d8:	00098493          	mv	s1,s3
   130dc:	00013823          	sd	zero,16(sp)
   130e0:	06013423          	sd	zero,104(sp)
   130e4:	c59ff06f          	j	12d3c <_vfprintf_r+0x21a4>
   130e8:	00600d93          	li	s11,6
   130ec:	fcdfd06f          	j	110b8 <_vfprintf_r+0x520>
   130f0:	03313023          	sd	s3,32(sp)
   130f4:	000c8893          	mv	a7,s9
   130f8:	000c0993          	mv	s3,s8
   130fc:	000a8c93          	mv	s9,s5
   13100:	000d0b13          	mv	s6,s10
   13104:	07013403          	ld	s0,112(sp)
   13108:	0a013483          	ld	s1,160(sp)
   1310c:	0a813903          	ld	s2,168(sp)
   13110:	0b013303          	ld	t1,176(sp)
   13114:	0b813c03          	ld	s8,184(sp)
   13118:	0c013b83          	ld	s7,192(sp)
   1311c:	09813a83          	ld	s5,152(sp)
   13120:	0c813d03          	ld	s10,200(sp)
   13124:	a3dff06f          	j	12b60 <_vfprintf_r+0x1fc8>
   13128:	00013823          	sd	zero,16(sp)
   1312c:	00078493          	mv	s1,a5
   13130:	b81ff06f          	j	12cb0 <_vfprintf_r+0x2118>
   13134:	03813783          	ld	a5,56(sp)
   13138:	06600a93          	li	s5,102
   1313c:	00e78a3b          	addw	s4,a5,a4
   13140:	01ba0a3b          	addw	s4,s4,s11
   13144:	d25ff06f          	j	12e68 <_vfprintf_r+0x22d0>
   13148:	06700a93          	li	s5,103
   1314c:	06013603          	ld	a2,96(sp)
   13150:	0ff00713          	li	a4,255
   13154:	00064783          	lbu	a5,0(a2)
   13158:	1ae78663          	beq	a5,a4,13304 <_vfprintf_r+0x276c>
   1315c:	01813703          	ld	a4,24(sp)
   13160:	00000813          	li	a6,0
   13164:	00000513          	li	a0,0
   13168:	0ff00693          	li	a3,255
   1316c:	0007859b          	sext.w	a1,a5
   13170:	00e7de63          	bge	a5,a4,1318c <_vfprintf_r+0x25f4>
   13174:	00164783          	lbu	a5,1(a2)
   13178:	40b7073b          	subw	a4,a4,a1
   1317c:	04078863          	beqz	a5,131cc <_vfprintf_r+0x2634>
   13180:	0015051b          	addiw	a0,a0,1
   13184:	00160613          	addi	a2,a2,1
   13188:	fed792e3          	bne	a5,a3,1316c <_vfprintf_r+0x25d4>
   1318c:	06c13023          	sd	a2,96(sp)
   13190:	00e13c23          	sd	a4,24(sp)
   13194:	02a13423          	sd	a0,40(sp)
   13198:	03013823          	sd	a6,48(sp)
   1319c:	02813703          	ld	a4,40(sp)
   131a0:	03013783          	ld	a5,48(sp)
   131a4:	00e787bb          	addw	a5,a5,a4
   131a8:	07813703          	ld	a4,120(sp)
   131ac:	02e787bb          	mulw	a5,a5,a4
   131b0:	014787bb          	addw	a5,a5,s4
   131b4:	00078a1b          	sext.w	s4,a5
   131b8:	fffa4993          	not	s3,s4
   131bc:	43f9d993          	srai	s3,s3,0x3f
   131c0:	0137f7b3          	and	a5,a5,s3
   131c4:	0007899b          	sext.w	s3,a5
   131c8:	914fe06f          	j	112dc <_vfprintf_r+0x744>
   131cc:	00064783          	lbu	a5,0(a2)
   131d0:	0018081b          	addiw	a6,a6,1
   131d4:	fb5ff06f          	j	13188 <_vfprintf_r+0x25f0>
   131d8:	0f210713          	addi	a4,sp,242
   131dc:	00069863          	bnez	a3,131ec <_vfprintf_r+0x2654>
   131e0:	03000713          	li	a4,48
   131e4:	0ee10923          	sb	a4,242(sp)
   131e8:	0f310713          	addi	a4,sp,243
   131ec:	21010693          	addi	a3,sp,528
   131f0:	0307879b          	addiw	a5,a5,48
   131f4:	40d706b3          	sub	a3,a4,a3
   131f8:	00f70023          	sb	a5,0(a4)
   131fc:	1216879b          	addiw	a5,a3,289
   13200:	04f13823          	sd	a5,80(sp)
   13204:	888fe06f          	j	1128c <_vfprintf_r+0x6f4>
   13208:	000a0593          	mv	a1,s4
   1320c:	000b0513          	mv	a0,s6
   13210:	02613023          	sd	t1,32(sp)
   13214:	0000e097          	auipc	ra,0xe
   13218:	638080e7          	jalr	1592(ra) # 2184c <__trunctfdf2>
   1321c:	0e810593          	addi	a1,sp,232
   13220:	00007097          	auipc	ra,0x7
   13224:	c18080e7          	jalr	-1000(ra) # 19e38 <frexp>
   13228:	0000e097          	auipc	ra,0xe
   1322c:	530080e7          	jalr	1328(ra) # 21758 <__extenddftf2>
   13230:	09013683          	ld	a3,144(sp)
   13234:	00000613          	li	a2,0
   13238:	0000d097          	auipc	ra,0xd
   1323c:	5b4080e7          	jalr	1460(ra) # 207ec <__multf3>
   13240:	00000613          	li	a2,0
   13244:	00000693          	li	a3,0
   13248:	00050a13          	mv	s4,a0
   1324c:	00b13c23          	sd	a1,24(sp)
   13250:	0000d097          	auipc	ra,0xd
   13254:	350080e7          	jalr	848(ra) # 205a0 <__eqtf2>
   13258:	01813f03          	ld	t5,24(sp)
   1325c:	02013303          	ld	t1,32(sp)
   13260:	00051663          	bnez	a0,1326c <_vfprintf_r+0x26d4>
   13264:	00100793          	li	a5,1
   13268:	0ef12423          	sw	a5,232(sp)
   1326c:	000227b7          	lui	a5,0x22
   13270:	ab078793          	addi	a5,a5,-1360 # 21ab0 <__clzdi2+0xac>
   13274:	00f13c23          	sd	a5,24(sp)
   13278:	fd0ff06f          	j	12a48 <_vfprintf_r+0x1eb0>
   1327c:	03013703          	ld	a4,48(sp)
   13280:	00177713          	andi	a4,a4,1
   13284:	00071463          	bnez	a4,1328c <_vfprintf_r+0x26f4>
   13288:	828fe06f          	j	112b0 <_vfprintf_r+0x718>
   1328c:	81cfe06f          	j	112a8 <_vfprintf_r+0x710>
   13290:	00079a63          	bnez	a5,132a4 <_vfprintf_r+0x270c>
   13294:	00100993          	li	s3,1
   13298:	06600a93          	li	s5,102
   1329c:	00100a13          	li	s4,1
   132a0:	9ddff06f          	j	12c7c <_vfprintf_r+0x20e4>
   132a4:	03813783          	ld	a5,56(sp)
   132a8:	06600a93          	li	s5,102
   132ac:	0017879b          	addiw	a5,a5,1
   132b0:	01b78e3b          	addw	t3,a5,s11
   132b4:	000e0a1b          	sext.w	s4,t3
   132b8:	fffa4993          	not	s3,s4
   132bc:	43f9d993          	srai	s3,s3,0x3f
   132c0:	013e7e33          	and	t3,t3,s3
   132c4:	000e099b          	sext.w	s3,t3
   132c8:	9b5ff06f          	j	12c7c <_vfprintf_r+0x20e4>
   132cc:	000228b7          	lui	a7,0x22
   132d0:	00030613          	mv	a2,t1
   132d4:	c5888c93          	addi	s9,a7,-936 # 21c58 <zeroes.4519>
   132d8:	f19fe06f          	j	121f0 <_vfprintf_r+0x1658>
   132dc:	00813683          	ld	a3,8(sp)
   132e0:	0006a703          	lw	a4,0(a3)
   132e4:	00868693          	addi	a3,a3,8
   132e8:	00070d9b          	sext.w	s11,a4
   132ec:	00075463          	bgez	a4,132f4 <_vfprintf_r+0x275c>
   132f0:	fff00d93          	li	s11,-1
   132f4:	00144e83          	lbu	t4,1(s0)
   132f8:	00d13423          	sd	a3,8(sp)
   132fc:	00078413          	mv	s0,a5
   13300:	a65fd06f          	j	10d64 <_vfprintf_r+0x1cc>
   13304:	02013823          	sd	zero,48(sp)
   13308:	02013423          	sd	zero,40(sp)
   1330c:	e91ff06f          	j	1319c <_vfprintf_r+0x2604>
   13310:	00200793          	li	a5,2
   13314:	04f13823          	sd	a5,80(sp)
   13318:	f75fd06f          	j	1128c <_vfprintf_r+0x6f4>
   1331c:	010bd783          	lhu	a5,16(s7)
   13320:	0407e793          	ori	a5,a5,64
   13324:	00fb9823          	sh	a5,16(s7)
   13328:	c11fd06f          	j	10f38 <_vfprintf_r+0x3a0>

000000000001332c <vfprintf>:
   1332c:	00025737          	lui	a4,0x25
   13330:	00050793          	mv	a5,a0
   13334:	95873503          	ld	a0,-1704(a4) # 24958 <_impure_ptr>
   13338:	00060693          	mv	a3,a2
   1333c:	00058613          	mv	a2,a1
   13340:	00078593          	mv	a1,a5
   13344:	ffffe317          	auipc	t1,0xffffe
   13348:	85430067          	jr	-1964(t1) # 10b98 <_vfprintf_r>

000000000001334c <__sbprintf>:
   1334c:	0105d783          	lhu	a5,16(a1)
   13350:	0ac5ae03          	lw	t3,172(a1)
   13354:	0125d303          	lhu	t1,18(a1)
   13358:	0305b883          	ld	a7,48(a1)
   1335c:	0405b803          	ld	a6,64(a1)
   13360:	b3010113          	addi	sp,sp,-1232
   13364:	ffd7f793          	andi	a5,a5,-3
   13368:	40000713          	li	a4,1024
   1336c:	4c813023          	sd	s0,1216(sp)
   13370:	00f11823          	sh	a5,16(sp)
   13374:	00058413          	mv	s0,a1
   13378:	0b010793          	addi	a5,sp,176
   1337c:	00010593          	mv	a1,sp
   13380:	4a913c23          	sd	s1,1208(sp)
   13384:	4b213823          	sd	s2,1200(sp)
   13388:	4c113423          	sd	ra,1224(sp)
   1338c:	00050913          	mv	s2,a0
   13390:	0bc12623          	sw	t3,172(sp)
   13394:	00611923          	sh	t1,18(sp)
   13398:	03113823          	sd	a7,48(sp)
   1339c:	05013023          	sd	a6,64(sp)
   133a0:	00f13023          	sd	a5,0(sp)
   133a4:	00f13c23          	sd	a5,24(sp)
   133a8:	00e12623          	sw	a4,12(sp)
   133ac:	02e12023          	sw	a4,32(sp)
   133b0:	02012423          	sw	zero,40(sp)
   133b4:	ffffd097          	auipc	ra,0xffffd
   133b8:	7e4080e7          	jalr	2020(ra) # 10b98 <_vfprintf_r>
   133bc:	00050493          	mv	s1,a0
   133c0:	02055c63          	bgez	a0,133f8 <__sbprintf+0xac>
   133c4:	01015783          	lhu	a5,16(sp)
   133c8:	0407f793          	andi	a5,a5,64
   133cc:	00078863          	beqz	a5,133dc <__sbprintf+0x90>
   133d0:	01045783          	lhu	a5,16(s0)
   133d4:	0407e793          	ori	a5,a5,64
   133d8:	00f41823          	sh	a5,16(s0)
   133dc:	4c813083          	ld	ra,1224(sp)
   133e0:	4c013403          	ld	s0,1216(sp)
   133e4:	4b013903          	ld	s2,1200(sp)
   133e8:	00048513          	mv	a0,s1
   133ec:	4b813483          	ld	s1,1208(sp)
   133f0:	4d010113          	addi	sp,sp,1232
   133f4:	00008067          	ret
   133f8:	00010593          	mv	a1,sp
   133fc:	00090513          	mv	a0,s2
   13400:	00000097          	auipc	ra,0x0
   13404:	6bc080e7          	jalr	1724(ra) # 13abc <_fflush_r>
   13408:	fa050ee3          	beqz	a0,133c4 <__sbprintf+0x78>
   1340c:	fff00493          	li	s1,-1
   13410:	fb5ff06f          	j	133c4 <__sbprintf+0x78>

0000000000013414 <__swbuf_r>:
   13414:	fd010113          	addi	sp,sp,-48
   13418:	02813023          	sd	s0,32(sp)
   1341c:	00913c23          	sd	s1,24(sp)
   13420:	01213823          	sd	s2,16(sp)
   13424:	02113423          	sd	ra,40(sp)
   13428:	01313423          	sd	s3,8(sp)
   1342c:	00050913          	mv	s2,a0
   13430:	00058493          	mv	s1,a1
   13434:	00060413          	mv	s0,a2
   13438:	00050663          	beqz	a0,13444 <__swbuf_r+0x30>
   1343c:	05052783          	lw	a5,80(a0)
   13440:	14078e63          	beqz	a5,1359c <__swbuf_r+0x188>
   13444:	01041703          	lh	a4,16(s0)
   13448:	02842683          	lw	a3,40(s0)
   1344c:	00877793          	andi	a5,a4,8
   13450:	00d42623          	sw	a3,12(s0)
   13454:	03071693          	slli	a3,a4,0x30
   13458:	0306d693          	srli	a3,a3,0x30
   1345c:	08078263          	beqz	a5,134e0 <__swbuf_r+0xcc>
   13460:	01843783          	ld	a5,24(s0)
   13464:	06078e63          	beqz	a5,134e0 <__swbuf_r+0xcc>
   13468:	0ff4f993          	andi	s3,s1,255
   1346c:	03269613          	slli	a2,a3,0x32
   13470:	00098493          	mv	s1,s3
   13474:	0a065063          	bgez	a2,13514 <__swbuf_r+0x100>
   13478:	00043703          	ld	a4,0(s0)
   1347c:	02042683          	lw	a3,32(s0)
   13480:	40f707bb          	subw	a5,a4,a5
   13484:	0cd7d063          	bge	a5,a3,13544 <__swbuf_r+0x130>
   13488:	00c42683          	lw	a3,12(s0)
   1348c:	00170613          	addi	a2,a4,1
   13490:	00c43023          	sd	a2,0(s0)
   13494:	fff6869b          	addiw	a3,a3,-1
   13498:	00d42623          	sw	a3,12(s0)
   1349c:	01370023          	sb	s3,0(a4)
   134a0:	02042703          	lw	a4,32(s0)
   134a4:	0017879b          	addiw	a5,a5,1
   134a8:	0cf70c63          	beq	a4,a5,13580 <__swbuf_r+0x16c>
   134ac:	01045783          	lhu	a5,16(s0)
   134b0:	0017f793          	andi	a5,a5,1
   134b4:	00078663          	beqz	a5,134c0 <__swbuf_r+0xac>
   134b8:	00a00793          	li	a5,10
   134bc:	0cf48263          	beq	s1,a5,13580 <__swbuf_r+0x16c>
   134c0:	02813083          	ld	ra,40(sp)
   134c4:	02013403          	ld	s0,32(sp)
   134c8:	01013903          	ld	s2,16(sp)
   134cc:	00813983          	ld	s3,8(sp)
   134d0:	00048513          	mv	a0,s1
   134d4:	01813483          	ld	s1,24(sp)
   134d8:	03010113          	addi	sp,sp,48
   134dc:	00008067          	ret
   134e0:	00040593          	mv	a1,s0
   134e4:	00090513          	mv	a0,s2
   134e8:	00000097          	auipc	ra,0x0
   134ec:	0dc080e7          	jalr	220(ra) # 135c4 <__swsetup_r>
   134f0:	0a051263          	bnez	a0,13594 <__swbuf_r+0x180>
   134f4:	01041703          	lh	a4,16(s0)
   134f8:	0ff4f993          	andi	s3,s1,255
   134fc:	01843783          	ld	a5,24(s0)
   13500:	03071693          	slli	a3,a4,0x30
   13504:	0306d693          	srli	a3,a3,0x30
   13508:	03269613          	slli	a2,a3,0x32
   1350c:	00098493          	mv	s1,s3
   13510:	f60644e3          	bltz	a2,13478 <__swbuf_r+0x64>
   13514:	0ac42683          	lw	a3,172(s0)
   13518:	00002637          	lui	a2,0x2
   1351c:	00c76733          	or	a4,a4,a2
   13520:	ffffe637          	lui	a2,0xffffe
   13524:	fff60613          	addi	a2,a2,-1 # ffffffffffffdfff <__BSS_END__+0xfffffffffffd95f7>
   13528:	00c6f6b3          	and	a3,a3,a2
   1352c:	00e41823          	sh	a4,16(s0)
   13530:	00043703          	ld	a4,0(s0)
   13534:	0ad42623          	sw	a3,172(s0)
   13538:	02042683          	lw	a3,32(s0)
   1353c:	40f707bb          	subw	a5,a4,a5
   13540:	f4d7c4e3          	blt	a5,a3,13488 <__swbuf_r+0x74>
   13544:	00040593          	mv	a1,s0
   13548:	00090513          	mv	a0,s2
   1354c:	00000097          	auipc	ra,0x0
   13550:	570080e7          	jalr	1392(ra) # 13abc <_fflush_r>
   13554:	04051063          	bnez	a0,13594 <__swbuf_r+0x180>
   13558:	00043703          	ld	a4,0(s0)
   1355c:	00c42683          	lw	a3,12(s0)
   13560:	00100793          	li	a5,1
   13564:	00170613          	addi	a2,a4,1
   13568:	fff6869b          	addiw	a3,a3,-1
   1356c:	00c43023          	sd	a2,0(s0)
   13570:	00d42623          	sw	a3,12(s0)
   13574:	01370023          	sb	s3,0(a4)
   13578:	02042703          	lw	a4,32(s0)
   1357c:	f2f718e3          	bne	a4,a5,134ac <__swbuf_r+0x98>
   13580:	00040593          	mv	a1,s0
   13584:	00090513          	mv	a0,s2
   13588:	00000097          	auipc	ra,0x0
   1358c:	534080e7          	jalr	1332(ra) # 13abc <_fflush_r>
   13590:	f20508e3          	beqz	a0,134c0 <__swbuf_r+0xac>
   13594:	fff00493          	li	s1,-1
   13598:	f29ff06f          	j	134c0 <__swbuf_r+0xac>
   1359c:	00001097          	auipc	ra,0x1
   135a0:	904080e7          	jalr	-1788(ra) # 13ea0 <__sinit>
   135a4:	ea1ff06f          	j	13444 <__swbuf_r+0x30>

00000000000135a8 <__swbuf>:
   135a8:	00025737          	lui	a4,0x25
   135ac:	00050793          	mv	a5,a0
   135b0:	95873503          	ld	a0,-1704(a4) # 24958 <_impure_ptr>
   135b4:	00058613          	mv	a2,a1
   135b8:	00078593          	mv	a1,a5
   135bc:	00000317          	auipc	t1,0x0
   135c0:	e5830067          	jr	-424(t1) # 13414 <__swbuf_r>

00000000000135c4 <__swsetup_r>:
   135c4:	000257b7          	lui	a5,0x25
   135c8:	9587b783          	ld	a5,-1704(a5) # 24958 <_impure_ptr>
   135cc:	fe010113          	addi	sp,sp,-32
   135d0:	00813823          	sd	s0,16(sp)
   135d4:	00913423          	sd	s1,8(sp)
   135d8:	00113c23          	sd	ra,24(sp)
   135dc:	00050493          	mv	s1,a0
   135e0:	00058413          	mv	s0,a1
   135e4:	00078663          	beqz	a5,135f0 <__swsetup_r+0x2c>
   135e8:	0507a703          	lw	a4,80(a5)
   135ec:	0e070263          	beqz	a4,136d0 <__swsetup_r+0x10c>
   135f0:	01041703          	lh	a4,16(s0)
   135f4:	03071793          	slli	a5,a4,0x30
   135f8:	00877693          	andi	a3,a4,8
   135fc:	0307d793          	srli	a5,a5,0x30
   13600:	04068063          	beqz	a3,13640 <__swsetup_r+0x7c>
   13604:	01843683          	ld	a3,24(s0)
   13608:	06068063          	beqz	a3,13668 <__swsetup_r+0xa4>
   1360c:	0017f613          	andi	a2,a5,1
   13610:	08060663          	beqz	a2,1369c <__swsetup_r+0xd8>
   13614:	02042603          	lw	a2,32(s0)
   13618:	00042623          	sw	zero,12(s0)
   1361c:	00000513          	li	a0,0
   13620:	40c0063b          	negw	a2,a2
   13624:	02c42423          	sw	a2,40(s0)
   13628:	08068863          	beqz	a3,136b8 <__swsetup_r+0xf4>
   1362c:	01813083          	ld	ra,24(sp)
   13630:	01013403          	ld	s0,16(sp)
   13634:	00813483          	ld	s1,8(sp)
   13638:	02010113          	addi	sp,sp,32
   1363c:	00008067          	ret
   13640:	0107f693          	andi	a3,a5,16
   13644:	0c068a63          	beqz	a3,13718 <__swsetup_r+0x154>
   13648:	0047f793          	andi	a5,a5,4
   1364c:	08079a63          	bnez	a5,136e0 <__swsetup_r+0x11c>
   13650:	01843683          	ld	a3,24(s0)
   13654:	00876713          	ori	a4,a4,8
   13658:	03071793          	slli	a5,a4,0x30
   1365c:	00e41823          	sh	a4,16(s0)
   13660:	0307d793          	srli	a5,a5,0x30
   13664:	fa0694e3          	bnez	a3,1360c <__swsetup_r+0x48>
   13668:	2807f613          	andi	a2,a5,640
   1366c:	20000593          	li	a1,512
   13670:	f8b60ee3          	beq	a2,a1,1360c <__swsetup_r+0x48>
   13674:	00040593          	mv	a1,s0
   13678:	00048513          	mv	a0,s1
   1367c:	00004097          	auipc	ra,0x4
   13680:	2dc080e7          	jalr	732(ra) # 17958 <__smakebuf_r>
   13684:	01041703          	lh	a4,16(s0)
   13688:	01843683          	ld	a3,24(s0)
   1368c:	03071793          	slli	a5,a4,0x30
   13690:	0307d793          	srli	a5,a5,0x30
   13694:	0017f613          	andi	a2,a5,1
   13698:	f6061ee3          	bnez	a2,13614 <__swsetup_r+0x50>
   1369c:	0027f613          	andi	a2,a5,2
   136a0:	00000593          	li	a1,0
   136a4:	00061463          	bnez	a2,136ac <__swsetup_r+0xe8>
   136a8:	02042583          	lw	a1,32(s0)
   136ac:	00b42623          	sw	a1,12(s0)
   136b0:	00000513          	li	a0,0
   136b4:	f6069ce3          	bnez	a3,1362c <__swsetup_r+0x68>
   136b8:	0807f793          	andi	a5,a5,128
   136bc:	f60788e3          	beqz	a5,1362c <__swsetup_r+0x68>
   136c0:	04076713          	ori	a4,a4,64
   136c4:	00e41823          	sh	a4,16(s0)
   136c8:	fff00513          	li	a0,-1
   136cc:	f61ff06f          	j	1362c <__swsetup_r+0x68>
   136d0:	00078513          	mv	a0,a5
   136d4:	00000097          	auipc	ra,0x0
   136d8:	7cc080e7          	jalr	1996(ra) # 13ea0 <__sinit>
   136dc:	f15ff06f          	j	135f0 <__swsetup_r+0x2c>
   136e0:	05843583          	ld	a1,88(s0)
   136e4:	02058063          	beqz	a1,13704 <__swsetup_r+0x140>
   136e8:	07440793          	addi	a5,s0,116
   136ec:	00f58a63          	beq	a1,a5,13700 <__swsetup_r+0x13c>
   136f0:	00048513          	mv	a0,s1
   136f4:	00001097          	auipc	ra,0x1
   136f8:	9b4080e7          	jalr	-1612(ra) # 140a8 <_free_r>
   136fc:	01041703          	lh	a4,16(s0)
   13700:	04043c23          	sd	zero,88(s0)
   13704:	01843683          	ld	a3,24(s0)
   13708:	fdb77713          	andi	a4,a4,-37
   1370c:	00042423          	sw	zero,8(s0)
   13710:	00d43023          	sd	a3,0(s0)
   13714:	f41ff06f          	j	13654 <__swsetup_r+0x90>
   13718:	00900793          	li	a5,9
   1371c:	00f4a023          	sw	a5,0(s1)
   13720:	04076713          	ori	a4,a4,64
   13724:	00e41823          	sh	a4,16(s0)
   13728:	fff00513          	li	a0,-1
   1372c:	f01ff06f          	j	1362c <__swsetup_r+0x68>

0000000000013730 <__call_exitprocs>:
   13730:	fb010113          	addi	sp,sp,-80
   13734:	000257b7          	lui	a5,0x25
   13738:	03413023          	sd	s4,32(sp)
   1373c:	9407ba03          	ld	s4,-1728(a5) # 24940 <_global_impure_ptr>
   13740:	03213823          	sd	s2,48(sp)
   13744:	04113423          	sd	ra,72(sp)
   13748:	1f8a3903          	ld	s2,504(s4)
   1374c:	04813023          	sd	s0,64(sp)
   13750:	02913c23          	sd	s1,56(sp)
   13754:	03313423          	sd	s3,40(sp)
   13758:	01513c23          	sd	s5,24(sp)
   1375c:	01613823          	sd	s6,16(sp)
   13760:	01713423          	sd	s7,8(sp)
   13764:	01813023          	sd	s8,0(sp)
   13768:	04090063          	beqz	s2,137a8 <__call_exitprocs+0x78>
   1376c:	00050b13          	mv	s6,a0
   13770:	00058b93          	mv	s7,a1
   13774:	00100a93          	li	s5,1
   13778:	fff00993          	li	s3,-1
   1377c:	00892483          	lw	s1,8(s2)
   13780:	fff4841b          	addiw	s0,s1,-1
   13784:	02044263          	bltz	s0,137a8 <__call_exitprocs+0x78>
   13788:	00349493          	slli	s1,s1,0x3
   1378c:	009904b3          	add	s1,s2,s1
   13790:	040b8463          	beqz	s7,137d8 <__call_exitprocs+0xa8>
   13794:	2084b783          	ld	a5,520(s1)
   13798:	05778063          	beq	a5,s7,137d8 <__call_exitprocs+0xa8>
   1379c:	fff4041b          	addiw	s0,s0,-1
   137a0:	ff848493          	addi	s1,s1,-8
   137a4:	ff3416e3          	bne	s0,s3,13790 <__call_exitprocs+0x60>
   137a8:	04813083          	ld	ra,72(sp)
   137ac:	04013403          	ld	s0,64(sp)
   137b0:	03813483          	ld	s1,56(sp)
   137b4:	03013903          	ld	s2,48(sp)
   137b8:	02813983          	ld	s3,40(sp)
   137bc:	02013a03          	ld	s4,32(sp)
   137c0:	01813a83          	ld	s5,24(sp)
   137c4:	01013b03          	ld	s6,16(sp)
   137c8:	00813b83          	ld	s7,8(sp)
   137cc:	00013c03          	ld	s8,0(sp)
   137d0:	05010113          	addi	sp,sp,80
   137d4:	00008067          	ret
   137d8:	00892783          	lw	a5,8(s2)
   137dc:	0084b703          	ld	a4,8(s1)
   137e0:	fff7879b          	addiw	a5,a5,-1
   137e4:	06878263          	beq	a5,s0,13848 <__call_exitprocs+0x118>
   137e8:	0004b423          	sd	zero,8(s1)
   137ec:	fa0708e3          	beqz	a4,1379c <__call_exitprocs+0x6c>
   137f0:	31092783          	lw	a5,784(s2)
   137f4:	008a96bb          	sllw	a3,s5,s0
   137f8:	00892c03          	lw	s8,8(s2)
   137fc:	00d7f7b3          	and	a5,a5,a3
   13800:	0007879b          	sext.w	a5,a5
   13804:	02079263          	bnez	a5,13828 <__call_exitprocs+0xf8>
   13808:	000700e7          	jalr	a4
   1380c:	00892703          	lw	a4,8(s2)
   13810:	1f8a3783          	ld	a5,504(s4)
   13814:	01871463          	bne	a4,s8,1381c <__call_exitprocs+0xec>
   13818:	f8f902e3          	beq	s2,a5,1379c <__call_exitprocs+0x6c>
   1381c:	f80786e3          	beqz	a5,137a8 <__call_exitprocs+0x78>
   13820:	00078913          	mv	s2,a5
   13824:	f59ff06f          	j	1377c <__call_exitprocs+0x4c>
   13828:	31492783          	lw	a5,788(s2)
   1382c:	1084b583          	ld	a1,264(s1)
   13830:	00d7f7b3          	and	a5,a5,a3
   13834:	0007879b          	sext.w	a5,a5
   13838:	00079c63          	bnez	a5,13850 <__call_exitprocs+0x120>
   1383c:	000b0513          	mv	a0,s6
   13840:	000700e7          	jalr	a4
   13844:	fc9ff06f          	j	1380c <__call_exitprocs+0xdc>
   13848:	00892423          	sw	s0,8(s2)
   1384c:	fa1ff06f          	j	137ec <__call_exitprocs+0xbc>
   13850:	00058513          	mv	a0,a1
   13854:	000700e7          	jalr	a4
   13858:	fb5ff06f          	j	1380c <__call_exitprocs+0xdc>

000000000001385c <__sflush_r>:
   1385c:	01059783          	lh	a5,16(a1)
   13860:	fd010113          	addi	sp,sp,-48
   13864:	02813023          	sd	s0,32(sp)
   13868:	01313423          	sd	s3,8(sp)
   1386c:	02113423          	sd	ra,40(sp)
   13870:	00913c23          	sd	s1,24(sp)
   13874:	01213823          	sd	s2,16(sp)
   13878:	0087f693          	andi	a3,a5,8
   1387c:	00058413          	mv	s0,a1
   13880:	00050993          	mv	s3,a0
   13884:	10069c63          	bnez	a3,1399c <__sflush_r+0x140>
   13888:	00001737          	lui	a4,0x1
   1388c:	80070713          	addi	a4,a4,-2048 # 800 <register_fini-0xf8b0>
   13890:	0085a683          	lw	a3,8(a1)
   13894:	00e7e7b3          	or	a5,a5,a4
   13898:	00f59823          	sh	a5,16(a1)
   1389c:	18d05663          	blez	a3,13a28 <__sflush_r+0x1cc>
   138a0:	04843703          	ld	a4,72(s0)
   138a4:	0c070c63          	beqz	a4,1397c <__sflush_r+0x120>
   138a8:	0009a483          	lw	s1,0(s3)
   138ac:	03079693          	slli	a3,a5,0x30
   138b0:	0009a023          	sw	zero,0(s3)
   138b4:	03379613          	slli	a2,a5,0x33
   138b8:	03043583          	ld	a1,48(s0)
   138bc:	0306d693          	srli	a3,a3,0x30
   138c0:	16064a63          	bltz	a2,13a34 <__sflush_r+0x1d8>
   138c4:	00000613          	li	a2,0
   138c8:	00100693          	li	a3,1
   138cc:	00098513          	mv	a0,s3
   138d0:	000700e7          	jalr	a4
   138d4:	fff00793          	li	a5,-1
   138d8:	00050613          	mv	a2,a0
   138dc:	18f50c63          	beq	a0,a5,13a74 <__sflush_r+0x218>
   138e0:	01045683          	lhu	a3,16(s0)
   138e4:	04843703          	ld	a4,72(s0)
   138e8:	03043583          	ld	a1,48(s0)
   138ec:	0046f693          	andi	a3,a3,4
   138f0:	00068e63          	beqz	a3,1390c <__sflush_r+0xb0>
   138f4:	00842683          	lw	a3,8(s0)
   138f8:	05843783          	ld	a5,88(s0)
   138fc:	40d60633          	sub	a2,a2,a3
   13900:	00078663          	beqz	a5,1390c <__sflush_r+0xb0>
   13904:	07042783          	lw	a5,112(s0)
   13908:	40f60633          	sub	a2,a2,a5
   1390c:	00000693          	li	a3,0
   13910:	00098513          	mv	a0,s3
   13914:	000700e7          	jalr	a4
   13918:	fff00793          	li	a5,-1
   1391c:	12f51063          	bne	a0,a5,13a3c <__sflush_r+0x1e0>
   13920:	0009a703          	lw	a4,0(s3)
   13924:	01041783          	lh	a5,16(s0)
   13928:	16070863          	beqz	a4,13a98 <__sflush_r+0x23c>
   1392c:	01d00693          	li	a3,29
   13930:	00d70663          	beq	a4,a3,1393c <__sflush_r+0xe0>
   13934:	01600693          	li	a3,22
   13938:	16d71a63          	bne	a4,a3,13aac <__sflush_r+0x250>
   1393c:	01843683          	ld	a3,24(s0)
   13940:	fffff737          	lui	a4,0xfffff
   13944:	7ff70713          	addi	a4,a4,2047 # fffffffffffff7ff <__BSS_END__+0xfffffffffffdadf7>
   13948:	00e7f7b3          	and	a5,a5,a4
   1394c:	00f41823          	sh	a5,16(s0)
   13950:	00042423          	sw	zero,8(s0)
   13954:	00d43023          	sd	a3,0(s0)
   13958:	05843583          	ld	a1,88(s0)
   1395c:	0099a023          	sw	s1,0(s3)
   13960:	00058e63          	beqz	a1,1397c <__sflush_r+0x120>
   13964:	07440793          	addi	a5,s0,116
   13968:	00f58863          	beq	a1,a5,13978 <__sflush_r+0x11c>
   1396c:	00098513          	mv	a0,s3
   13970:	00000097          	auipc	ra,0x0
   13974:	738080e7          	jalr	1848(ra) # 140a8 <_free_r>
   13978:	04043c23          	sd	zero,88(s0)
   1397c:	00000513          	li	a0,0
   13980:	02813083          	ld	ra,40(sp)
   13984:	02013403          	ld	s0,32(sp)
   13988:	01813483          	ld	s1,24(sp)
   1398c:	01013903          	ld	s2,16(sp)
   13990:	00813983          	ld	s3,8(sp)
   13994:	03010113          	addi	sp,sp,48
   13998:	00008067          	ret
   1399c:	0185b903          	ld	s2,24(a1)
   139a0:	fc090ee3          	beqz	s2,1397c <__sflush_r+0x120>
   139a4:	0005b483          	ld	s1,0(a1)
   139a8:	03079713          	slli	a4,a5,0x30
   139ac:	03075713          	srli	a4,a4,0x30
   139b0:	00377713          	andi	a4,a4,3
   139b4:	0125b023          	sd	s2,0(a1)
   139b8:	412484bb          	subw	s1,s1,s2
   139bc:	00000793          	li	a5,0
   139c0:	00071463          	bnez	a4,139c8 <__sflush_r+0x16c>
   139c4:	0205a783          	lw	a5,32(a1)
   139c8:	00f42623          	sw	a5,12(s0)
   139cc:	00904863          	bgtz	s1,139dc <__sflush_r+0x180>
   139d0:	fadff06f          	j	1397c <__sflush_r+0x120>
   139d4:	00a90933          	add	s2,s2,a0
   139d8:	fa9052e3          	blez	s1,1397c <__sflush_r+0x120>
   139dc:	04043783          	ld	a5,64(s0)
   139e0:	03043583          	ld	a1,48(s0)
   139e4:	00048693          	mv	a3,s1
   139e8:	00090613          	mv	a2,s2
   139ec:	00098513          	mv	a0,s3
   139f0:	000780e7          	jalr	a5
   139f4:	40a484bb          	subw	s1,s1,a0
   139f8:	fca04ee3          	bgtz	a0,139d4 <__sflush_r+0x178>
   139fc:	01045783          	lhu	a5,16(s0)
   13a00:	02813083          	ld	ra,40(sp)
   13a04:	01813483          	ld	s1,24(sp)
   13a08:	0407e793          	ori	a5,a5,64
   13a0c:	00f41823          	sh	a5,16(s0)
   13a10:	02013403          	ld	s0,32(sp)
   13a14:	01013903          	ld	s2,16(sp)
   13a18:	00813983          	ld	s3,8(sp)
   13a1c:	fff00513          	li	a0,-1
   13a20:	03010113          	addi	sp,sp,48
   13a24:	00008067          	ret
   13a28:	0705a703          	lw	a4,112(a1)
   13a2c:	e6e04ae3          	bgtz	a4,138a0 <__sflush_r+0x44>
   13a30:	f4dff06f          	j	1397c <__sflush_r+0x120>
   13a34:	09043603          	ld	a2,144(s0)
   13a38:	eb5ff06f          	j	138ec <__sflush_r+0x90>
   13a3c:	01045783          	lhu	a5,16(s0)
   13a40:	fffff737          	lui	a4,0xfffff
   13a44:	7ff70713          	addi	a4,a4,2047 # fffffffffffff7ff <__BSS_END__+0xfffffffffffdadf7>
   13a48:	00e7f7b3          	and	a5,a5,a4
   13a4c:	01843683          	ld	a3,24(s0)
   13a50:	0107979b          	slliw	a5,a5,0x10
   13a54:	4107d79b          	sraiw	a5,a5,0x10
   13a58:	00f41823          	sh	a5,16(s0)
   13a5c:	00042423          	sw	zero,8(s0)
   13a60:	00d43023          	sd	a3,0(s0)
   13a64:	03379713          	slli	a4,a5,0x33
   13a68:	ee0758e3          	bgez	a4,13958 <__sflush_r+0xfc>
   13a6c:	08a43823          	sd	a0,144(s0)
   13a70:	ee9ff06f          	j	13958 <__sflush_r+0xfc>
   13a74:	0009a783          	lw	a5,0(s3)
   13a78:	e60784e3          	beqz	a5,138e0 <__sflush_r+0x84>
   13a7c:	01d00713          	li	a4,29
   13a80:	00e78663          	beq	a5,a4,13a8c <__sflush_r+0x230>
   13a84:	01600713          	li	a4,22
   13a88:	f6e79ae3          	bne	a5,a4,139fc <__sflush_r+0x1a0>
   13a8c:	0099a023          	sw	s1,0(s3)
   13a90:	00000513          	li	a0,0
   13a94:	eedff06f          	j	13980 <__sflush_r+0x124>
   13a98:	fffff737          	lui	a4,0xfffff
   13a9c:	7ff70713          	addi	a4,a4,2047 # fffffffffffff7ff <__BSS_END__+0xfffffffffffdadf7>
   13aa0:	01843683          	ld	a3,24(s0)
   13aa4:	00e7f7b3          	and	a5,a5,a4
   13aa8:	fb1ff06f          	j	13a58 <__sflush_r+0x1fc>
   13aac:	0407e793          	ori	a5,a5,64
   13ab0:	00f41823          	sh	a5,16(s0)
   13ab4:	fff00513          	li	a0,-1
   13ab8:	ec9ff06f          	j	13980 <__sflush_r+0x124>

0000000000013abc <_fflush_r>:
   13abc:	fe010113          	addi	sp,sp,-32
   13ac0:	00813823          	sd	s0,16(sp)
   13ac4:	00113c23          	sd	ra,24(sp)
   13ac8:	00050413          	mv	s0,a0
   13acc:	00050663          	beqz	a0,13ad8 <_fflush_r+0x1c>
   13ad0:	05052783          	lw	a5,80(a0)
   13ad4:	02078063          	beqz	a5,13af4 <_fflush_r+0x38>
   13ad8:	01059783          	lh	a5,16(a1)
   13adc:	02079863          	bnez	a5,13b0c <_fflush_r+0x50>
   13ae0:	01813083          	ld	ra,24(sp)
   13ae4:	01013403          	ld	s0,16(sp)
   13ae8:	00000513          	li	a0,0
   13aec:	02010113          	addi	sp,sp,32
   13af0:	00008067          	ret
   13af4:	00b13423          	sd	a1,8(sp)
   13af8:	00000097          	auipc	ra,0x0
   13afc:	3a8080e7          	jalr	936(ra) # 13ea0 <__sinit>
   13b00:	00813583          	ld	a1,8(sp)
   13b04:	01059783          	lh	a5,16(a1)
   13b08:	fc078ce3          	beqz	a5,13ae0 <_fflush_r+0x24>
   13b0c:	00040513          	mv	a0,s0
   13b10:	01013403          	ld	s0,16(sp)
   13b14:	01813083          	ld	ra,24(sp)
   13b18:	02010113          	addi	sp,sp,32
   13b1c:	00000317          	auipc	t1,0x0
   13b20:	d4030067          	jr	-704(t1) # 1385c <__sflush_r>

0000000000013b24 <fflush>:
   13b24:	00050593          	mv	a1,a0
   13b28:	00050a63          	beqz	a0,13b3c <fflush+0x18>
   13b2c:	000257b7          	lui	a5,0x25
   13b30:	9587b503          	ld	a0,-1704(a5) # 24958 <_impure_ptr>
   13b34:	00000317          	auipc	t1,0x0
   13b38:	f8830067          	jr	-120(t1) # 13abc <_fflush_r>
   13b3c:	000257b7          	lui	a5,0x25
   13b40:	9407b503          	ld	a0,-1728(a5) # 24940 <_global_impure_ptr>
   13b44:	000145b7          	lui	a1,0x14
   13b48:	abc58593          	addi	a1,a1,-1348 # 13abc <_fflush_r>
   13b4c:	00001317          	auipc	t1,0x1
   13b50:	e4430067          	jr	-444(t1) # 14990 <_fwalk_reent>

0000000000013b54 <__fp_lock>:
   13b54:	00000513          	li	a0,0
   13b58:	00008067          	ret

0000000000013b5c <_cleanup_r>:
   13b5c:	0001e5b7          	lui	a1,0x1e
   13b60:	16458593          	addi	a1,a1,356 # 1e164 <_fclose_r>
   13b64:	00001317          	auipc	t1,0x1
   13b68:	e2c30067          	jr	-468(t1) # 14990 <_fwalk_reent>

0000000000013b6c <__sinit.part.0>:
   13b6c:	fc010113          	addi	sp,sp,-64
   13b70:	000147b7          	lui	a5,0x14
   13b74:	02113c23          	sd	ra,56(sp)
   13b78:	02813823          	sd	s0,48(sp)
   13b7c:	02913423          	sd	s1,40(sp)
   13b80:	03213023          	sd	s2,32(sp)
   13b84:	01313c23          	sd	s3,24(sp)
   13b88:	01413823          	sd	s4,16(sp)
   13b8c:	01513423          	sd	s5,8(sp)
   13b90:	01613023          	sd	s6,0(sp)
   13b94:	00853403          	ld	s0,8(a0)
   13b98:	b5c78793          	addi	a5,a5,-1188 # 13b5c <_cleanup_r>
   13b9c:	04f53c23          	sd	a5,88(a0)
   13ba0:	53850713          	addi	a4,a0,1336
   13ba4:	00300793          	li	a5,3
   13ba8:	52e53823          	sd	a4,1328(a0)
   13bac:	52f52423          	sw	a5,1320(a0)
   13bb0:	52053023          	sd	zero,1312(a0)
   13bb4:	00400793          	li	a5,4
   13bb8:	00050913          	mv	s2,a0
   13bbc:	00f42823          	sw	a5,16(s0)
   13bc0:	00800613          	li	a2,8
   13bc4:	00000593          	li	a1,0
   13bc8:	0a042623          	sw	zero,172(s0)
   13bcc:	00043023          	sd	zero,0(s0)
   13bd0:	00043423          	sd	zero,8(s0)
   13bd4:	00043c23          	sd	zero,24(s0)
   13bd8:	02042023          	sw	zero,32(s0)
   13bdc:	02042423          	sw	zero,40(s0)
   13be0:	0a440513          	addi	a0,s0,164
   13be4:	ffffd097          	auipc	ra,0xffffd
   13be8:	8d4080e7          	jalr	-1836(ra) # 104b8 <memset>
   13bec:	0001ab37          	lui	s6,0x1a
   13bf0:	01093483          	ld	s1,16(s2)
   13bf4:	0001aab7          	lui	s5,0x1a
   13bf8:	0001aa37          	lui	s4,0x1a
   13bfc:	0001a9b7          	lui	s3,0x1a
   13c00:	fecb0b13          	addi	s6,s6,-20 # 19fec <__sread>
   13c04:	054a8a93          	addi	s5,s5,84 # 1a054 <__swrite>
   13c08:	0e4a0a13          	addi	s4,s4,228 # 1a0e4 <__sseek>
   13c0c:	15098993          	addi	s3,s3,336 # 1a150 <__sclose>
   13c10:	000107b7          	lui	a5,0x10
   13c14:	03643c23          	sd	s6,56(s0)
   13c18:	05543023          	sd	s5,64(s0)
   13c1c:	05443423          	sd	s4,72(s0)
   13c20:	05343823          	sd	s3,80(s0)
   13c24:	02843823          	sd	s0,48(s0)
   13c28:	00978793          	addi	a5,a5,9 # 10009 <register_fini-0xa7>
   13c2c:	00f4a823          	sw	a5,16(s1)
   13c30:	00800613          	li	a2,8
   13c34:	00000593          	li	a1,0
   13c38:	0a04a623          	sw	zero,172(s1)
   13c3c:	0004b023          	sd	zero,0(s1)
   13c40:	0004b423          	sd	zero,8(s1)
   13c44:	0004bc23          	sd	zero,24(s1)
   13c48:	0204a023          	sw	zero,32(s1)
   13c4c:	0204a423          	sw	zero,40(s1)
   13c50:	0a448513          	addi	a0,s1,164
   13c54:	ffffd097          	auipc	ra,0xffffd
   13c58:	864080e7          	jalr	-1948(ra) # 104b8 <memset>
   13c5c:	01893403          	ld	s0,24(s2)
   13c60:	000207b7          	lui	a5,0x20
   13c64:	0364bc23          	sd	s6,56(s1)
   13c68:	0554b023          	sd	s5,64(s1)
   13c6c:	0544b423          	sd	s4,72(s1)
   13c70:	0534b823          	sd	s3,80(s1)
   13c74:	0294b823          	sd	s1,48(s1)
   13c78:	01278793          	addi	a5,a5,18 # 20012 <__divdf3+0xfa>
   13c7c:	00f42823          	sw	a5,16(s0)
   13c80:	0a042623          	sw	zero,172(s0)
   13c84:	00043023          	sd	zero,0(s0)
   13c88:	00043423          	sd	zero,8(s0)
   13c8c:	00043c23          	sd	zero,24(s0)
   13c90:	02042023          	sw	zero,32(s0)
   13c94:	02042423          	sw	zero,40(s0)
   13c98:	0a440513          	addi	a0,s0,164
   13c9c:	00800613          	li	a2,8
   13ca0:	00000593          	li	a1,0
   13ca4:	ffffd097          	auipc	ra,0xffffd
   13ca8:	814080e7          	jalr	-2028(ra) # 104b8 <memset>
   13cac:	03813083          	ld	ra,56(sp)
   13cb0:	03643c23          	sd	s6,56(s0)
   13cb4:	05543023          	sd	s5,64(s0)
   13cb8:	05443423          	sd	s4,72(s0)
   13cbc:	05343823          	sd	s3,80(s0)
   13cc0:	02843823          	sd	s0,48(s0)
   13cc4:	03013403          	ld	s0,48(sp)
   13cc8:	00100793          	li	a5,1
   13ccc:	04f92823          	sw	a5,80(s2)
   13cd0:	02813483          	ld	s1,40(sp)
   13cd4:	02013903          	ld	s2,32(sp)
   13cd8:	01813983          	ld	s3,24(sp)
   13cdc:	01013a03          	ld	s4,16(sp)
   13ce0:	00813a83          	ld	s5,8(sp)
   13ce4:	00013b03          	ld	s6,0(sp)
   13ce8:	04010113          	addi	sp,sp,64
   13cec:	00008067          	ret

0000000000013cf0 <__fp_unlock>:
   13cf0:	00000513          	li	a0,0
   13cf4:	00008067          	ret

0000000000013cf8 <__sfmoreglue>:
   13cf8:	fe010113          	addi	sp,sp,-32
   13cfc:	00913423          	sd	s1,8(sp)
   13d00:	0b000613          	li	a2,176
   13d04:	fff5849b          	addiw	s1,a1,-1
   13d08:	02c484b3          	mul	s1,s1,a2
   13d0c:	01213023          	sd	s2,0(sp)
   13d10:	00058913          	mv	s2,a1
   13d14:	00813823          	sd	s0,16(sp)
   13d18:	00113c23          	sd	ra,24(sp)
   13d1c:	0c848593          	addi	a1,s1,200
   13d20:	00004097          	auipc	ra,0x4
   13d24:	d64080e7          	jalr	-668(ra) # 17a84 <_malloc_r>
   13d28:	00050413          	mv	s0,a0
   13d2c:	02050263          	beqz	a0,13d50 <__sfmoreglue+0x58>
   13d30:	01850513          	addi	a0,a0,24
   13d34:	00043023          	sd	zero,0(s0)
   13d38:	01242423          	sw	s2,8(s0)
   13d3c:	00a43823          	sd	a0,16(s0)
   13d40:	0b048613          	addi	a2,s1,176
   13d44:	00000593          	li	a1,0
   13d48:	ffffc097          	auipc	ra,0xffffc
   13d4c:	770080e7          	jalr	1904(ra) # 104b8 <memset>
   13d50:	01813083          	ld	ra,24(sp)
   13d54:	00040513          	mv	a0,s0
   13d58:	01013403          	ld	s0,16(sp)
   13d5c:	00813483          	ld	s1,8(sp)
   13d60:	00013903          	ld	s2,0(sp)
   13d64:	02010113          	addi	sp,sp,32
   13d68:	00008067          	ret

0000000000013d6c <__sfp>:
   13d6c:	fd010113          	addi	sp,sp,-48
   13d70:	000257b7          	lui	a5,0x25
   13d74:	00913c23          	sd	s1,24(sp)
   13d78:	9407b483          	ld	s1,-1728(a5) # 24940 <_global_impure_ptr>
   13d7c:	01213823          	sd	s2,16(sp)
   13d80:	02113423          	sd	ra,40(sp)
   13d84:	0504a783          	lw	a5,80(s1)
   13d88:	02813023          	sd	s0,32(sp)
   13d8c:	01313423          	sd	s3,8(sp)
   13d90:	00050913          	mv	s2,a0
   13d94:	0a078e63          	beqz	a5,13e50 <__sfp+0xe4>
   13d98:	52048493          	addi	s1,s1,1312
   13d9c:	0b000993          	li	s3,176
   13da0:	0084a783          	lw	a5,8(s1)
   13da4:	0104b403          	ld	s0,16(s1)
   13da8:	08f05c63          	blez	a5,13e40 <__sfp+0xd4>
   13dac:	fff7879b          	addiw	a5,a5,-1
   13db0:	02079793          	slli	a5,a5,0x20
   13db4:	0207d793          	srli	a5,a5,0x20
   13db8:	00178793          	addi	a5,a5,1
   13dbc:	033787b3          	mul	a5,a5,s3
   13dc0:	00f407b3          	add	a5,s0,a5
   13dc4:	00c0006f          	j	13dd0 <__sfp+0x64>
   13dc8:	0b040413          	addi	s0,s0,176
   13dcc:	06878a63          	beq	a5,s0,13e40 <__sfp+0xd4>
   13dd0:	01041703          	lh	a4,16(s0)
   13dd4:	fe071ae3          	bnez	a4,13dc8 <__sfp+0x5c>
   13dd8:	ffff07b7          	lui	a5,0xffff0
   13ddc:	00178793          	addi	a5,a5,1 # ffffffffffff0001 <__BSS_END__+0xfffffffffffcb5f9>
   13de0:	0a042623          	sw	zero,172(s0)
   13de4:	00043023          	sd	zero,0(s0)
   13de8:	00043423          	sd	zero,8(s0)
   13dec:	00f42823          	sw	a5,16(s0)
   13df0:	00043c23          	sd	zero,24(s0)
   13df4:	02042023          	sw	zero,32(s0)
   13df8:	02042423          	sw	zero,40(s0)
   13dfc:	00800613          	li	a2,8
   13e00:	00000593          	li	a1,0
   13e04:	0a440513          	addi	a0,s0,164
   13e08:	ffffc097          	auipc	ra,0xffffc
   13e0c:	6b0080e7          	jalr	1712(ra) # 104b8 <memset>
   13e10:	04043c23          	sd	zero,88(s0)
   13e14:	06042023          	sw	zero,96(s0)
   13e18:	06043c23          	sd	zero,120(s0)
   13e1c:	08042023          	sw	zero,128(s0)
   13e20:	02813083          	ld	ra,40(sp)
   13e24:	00040513          	mv	a0,s0
   13e28:	02013403          	ld	s0,32(sp)
   13e2c:	01813483          	ld	s1,24(sp)
   13e30:	01013903          	ld	s2,16(sp)
   13e34:	00813983          	ld	s3,8(sp)
   13e38:	03010113          	addi	sp,sp,48
   13e3c:	00008067          	ret
   13e40:	0004b403          	ld	s0,0(s1)
   13e44:	00040e63          	beqz	s0,13e60 <__sfp+0xf4>
   13e48:	00040493          	mv	s1,s0
   13e4c:	f55ff06f          	j	13da0 <__sfp+0x34>
   13e50:	00048513          	mv	a0,s1
   13e54:	00000097          	auipc	ra,0x0
   13e58:	d18080e7          	jalr	-744(ra) # 13b6c <__sinit.part.0>
   13e5c:	f3dff06f          	j	13d98 <__sfp+0x2c>
   13e60:	00400593          	li	a1,4
   13e64:	00090513          	mv	a0,s2
   13e68:	00000097          	auipc	ra,0x0
   13e6c:	e90080e7          	jalr	-368(ra) # 13cf8 <__sfmoreglue>
   13e70:	00a4b023          	sd	a0,0(s1)
   13e74:	00050413          	mv	s0,a0
   13e78:	fc0518e3          	bnez	a0,13e48 <__sfp+0xdc>
   13e7c:	00c00793          	li	a5,12
   13e80:	00f92023          	sw	a5,0(s2)
   13e84:	f9dff06f          	j	13e20 <__sfp+0xb4>

0000000000013e88 <_cleanup>:
   13e88:	000257b7          	lui	a5,0x25
   13e8c:	9407b503          	ld	a0,-1728(a5) # 24940 <_global_impure_ptr>
   13e90:	0001e5b7          	lui	a1,0x1e
   13e94:	16458593          	addi	a1,a1,356 # 1e164 <_fclose_r>
   13e98:	00001317          	auipc	t1,0x1
   13e9c:	af830067          	jr	-1288(t1) # 14990 <_fwalk_reent>

0000000000013ea0 <__sinit>:
   13ea0:	05052783          	lw	a5,80(a0)
   13ea4:	00078463          	beqz	a5,13eac <__sinit+0xc>
   13ea8:	00008067          	ret
   13eac:	00000317          	auipc	t1,0x0
   13eb0:	cc030067          	jr	-832(t1) # 13b6c <__sinit.part.0>

0000000000013eb4 <__sfp_lock_acquire>:
   13eb4:	00008067          	ret

0000000000013eb8 <__sfp_lock_release>:
   13eb8:	00008067          	ret

0000000000013ebc <__sinit_lock_acquire>:
   13ebc:	00008067          	ret

0000000000013ec0 <__sinit_lock_release>:
   13ec0:	00008067          	ret

0000000000013ec4 <__fp_lock_all>:
   13ec4:	000257b7          	lui	a5,0x25
   13ec8:	9587b503          	ld	a0,-1704(a5) # 24958 <_impure_ptr>
   13ecc:	000145b7          	lui	a1,0x14
   13ed0:	b5458593          	addi	a1,a1,-1196 # 13b54 <__fp_lock>
   13ed4:	00001317          	auipc	t1,0x1
   13ed8:	9f830067          	jr	-1544(t1) # 148cc <_fwalk>

0000000000013edc <__fp_unlock_all>:
   13edc:	000257b7          	lui	a5,0x25
   13ee0:	9587b503          	ld	a0,-1704(a5) # 24958 <_impure_ptr>
   13ee4:	000145b7          	lui	a1,0x14
   13ee8:	cf058593          	addi	a1,a1,-784 # 13cf0 <__fp_unlock>
   13eec:	00001317          	auipc	t1,0x1
   13ef0:	9e030067          	jr	-1568(t1) # 148cc <_fwalk>

0000000000013ef4 <__libc_fini_array>:
   13ef4:	fe010113          	addi	sp,sp,-32
   13ef8:	00813823          	sd	s0,16(sp)
   13efc:	000247b7          	lui	a5,0x24
   13f00:	00024437          	lui	s0,0x24
   13f04:	80840413          	addi	s0,s0,-2040 # 23808 <__do_global_dtors_aux_fini_array_entry>
   13f08:	81078793          	addi	a5,a5,-2032 # 23810 <impure_data>
   13f0c:	408787b3          	sub	a5,a5,s0
   13f10:	00913423          	sd	s1,8(sp)
   13f14:	00113c23          	sd	ra,24(sp)
   13f18:	4037d493          	srai	s1,a5,0x3
   13f1c:	02048063          	beqz	s1,13f3c <__libc_fini_array+0x48>
   13f20:	ff878793          	addi	a5,a5,-8
   13f24:	00878433          	add	s0,a5,s0
   13f28:	00043783          	ld	a5,0(s0)
   13f2c:	fff48493          	addi	s1,s1,-1
   13f30:	ff840413          	addi	s0,s0,-8
   13f34:	000780e7          	jalr	a5
   13f38:	fe0498e3          	bnez	s1,13f28 <__libc_fini_array+0x34>
   13f3c:	01813083          	ld	ra,24(sp)
   13f40:	01013403          	ld	s0,16(sp)
   13f44:	00813483          	ld	s1,8(sp)
   13f48:	02010113          	addi	sp,sp,32
   13f4c:	00008067          	ret

0000000000013f50 <_malloc_trim_r>:
   13f50:	fd010113          	addi	sp,sp,-48
   13f54:	01313423          	sd	s3,8(sp)
   13f58:	000249b7          	lui	s3,0x24
   13f5c:	02813023          	sd	s0,32(sp)
   13f60:	00913c23          	sd	s1,24(sp)
   13f64:	01213823          	sd	s2,16(sp)
   13f68:	01413023          	sd	s4,0(sp)
   13f6c:	02113423          	sd	ra,40(sp)
   13f70:	00058a13          	mv	s4,a1
   13f74:	00050913          	mv	s2,a0
   13f78:	10098993          	addi	s3,s3,256 # 24100 <__malloc_av_>
   13f7c:	00004097          	auipc	ra,0x4
   13f80:	6ec080e7          	jalr	1772(ra) # 18668 <__malloc_lock>
   13f84:	0109b703          	ld	a4,16(s3)
   13f88:	000017b7          	lui	a5,0x1
   13f8c:	fdf78413          	addi	s0,a5,-33 # fdf <register_fini-0xf0d1>
   13f90:	00873483          	ld	s1,8(a4)
   13f94:	41440433          	sub	s0,s0,s4
   13f98:	ffc4f493          	andi	s1,s1,-4
   13f9c:	00940433          	add	s0,s0,s1
   13fa0:	00c45413          	srli	s0,s0,0xc
   13fa4:	fff40413          	addi	s0,s0,-1
   13fa8:	00c41413          	slli	s0,s0,0xc
   13fac:	02f44063          	blt	s0,a5,13fcc <_malloc_trim_r+0x7c>
   13fb0:	00000593          	li	a1,0
   13fb4:	00090513          	mv	a0,s2
   13fb8:	00006097          	auipc	ra,0x6
   13fbc:	e1c080e7          	jalr	-484(ra) # 19dd4 <_sbrk_r>
   13fc0:	0109b783          	ld	a5,16(s3)
   13fc4:	009787b3          	add	a5,a5,s1
   13fc8:	02f50a63          	beq	a0,a5,13ffc <_malloc_trim_r+0xac>
   13fcc:	00090513          	mv	a0,s2
   13fd0:	00004097          	auipc	ra,0x4
   13fd4:	69c080e7          	jalr	1692(ra) # 1866c <__malloc_unlock>
   13fd8:	02813083          	ld	ra,40(sp)
   13fdc:	02013403          	ld	s0,32(sp)
   13fe0:	01813483          	ld	s1,24(sp)
   13fe4:	01013903          	ld	s2,16(sp)
   13fe8:	00813983          	ld	s3,8(sp)
   13fec:	00013a03          	ld	s4,0(sp)
   13ff0:	00000513          	li	a0,0
   13ff4:	03010113          	addi	sp,sp,48
   13ff8:	00008067          	ret
   13ffc:	408005b3          	neg	a1,s0
   14000:	00090513          	mv	a0,s2
   14004:	00006097          	auipc	ra,0x6
   14008:	dd0080e7          	jalr	-560(ra) # 19dd4 <_sbrk_r>
   1400c:	fff00793          	li	a5,-1
   14010:	04f50c63          	beq	a0,a5,14068 <_malloc_trim_r+0x118>
   14014:	000257b7          	lui	a5,0x25
   14018:	9d878793          	addi	a5,a5,-1576 # 249d8 <__malloc_current_mallinfo>
   1401c:	0007a703          	lw	a4,0(a5)
   14020:	0109b683          	ld	a3,16(s3)
   14024:	408484b3          	sub	s1,s1,s0
   14028:	0014e493          	ori	s1,s1,1
   1402c:	4087043b          	subw	s0,a4,s0
   14030:	00090513          	mv	a0,s2
   14034:	0096b423          	sd	s1,8(a3)
   14038:	0087a023          	sw	s0,0(a5)
   1403c:	00004097          	auipc	ra,0x4
   14040:	630080e7          	jalr	1584(ra) # 1866c <__malloc_unlock>
   14044:	02813083          	ld	ra,40(sp)
   14048:	02013403          	ld	s0,32(sp)
   1404c:	01813483          	ld	s1,24(sp)
   14050:	01013903          	ld	s2,16(sp)
   14054:	00813983          	ld	s3,8(sp)
   14058:	00013a03          	ld	s4,0(sp)
   1405c:	00100513          	li	a0,1
   14060:	03010113          	addi	sp,sp,48
   14064:	00008067          	ret
   14068:	00000593          	li	a1,0
   1406c:	00090513          	mv	a0,s2
   14070:	00006097          	auipc	ra,0x6
   14074:	d64080e7          	jalr	-668(ra) # 19dd4 <_sbrk_r>
   14078:	0109b703          	ld	a4,16(s3)
   1407c:	01f00693          	li	a3,31
   14080:	40e507b3          	sub	a5,a0,a4
   14084:	f4f6d4e3          	bge	a3,a5,13fcc <_malloc_trim_r+0x7c>
   14088:	000256b7          	lui	a3,0x25
   1408c:	9606b683          	ld	a3,-1696(a3) # 24960 <__malloc_sbrk_base>
   14090:	0017e793          	ori	a5,a5,1
   14094:	00f73423          	sd	a5,8(a4)
   14098:	40d50533          	sub	a0,a0,a3
   1409c:	000256b7          	lui	a3,0x25
   140a0:	9ca6ac23          	sw	a0,-1576(a3) # 249d8 <__malloc_current_mallinfo>
   140a4:	f29ff06f          	j	13fcc <_malloc_trim_r+0x7c>

00000000000140a8 <_free_r>:
   140a8:	14058263          	beqz	a1,141ec <_free_r+0x144>
   140ac:	fe010113          	addi	sp,sp,-32
   140b0:	00813823          	sd	s0,16(sp)
   140b4:	00913423          	sd	s1,8(sp)
   140b8:	00058413          	mv	s0,a1
   140bc:	00050493          	mv	s1,a0
   140c0:	00113c23          	sd	ra,24(sp)
   140c4:	00004097          	auipc	ra,0x4
   140c8:	5a4080e7          	jalr	1444(ra) # 18668 <__malloc_lock>
   140cc:	ff843503          	ld	a0,-8(s0)
   140d0:	ff040713          	addi	a4,s0,-16
   140d4:	000245b7          	lui	a1,0x24
   140d8:	ffe57793          	andi	a5,a0,-2
   140dc:	00f70633          	add	a2,a4,a5
   140e0:	10058593          	addi	a1,a1,256 # 24100 <__malloc_av_>
   140e4:	00863683          	ld	a3,8(a2)
   140e8:	0105b803          	ld	a6,16(a1)
   140ec:	ffc6f693          	andi	a3,a3,-4
   140f0:	1cc80663          	beq	a6,a2,142bc <_free_r+0x214>
   140f4:	00d63423          	sd	a3,8(a2)
   140f8:	00157513          	andi	a0,a0,1
   140fc:	00d60833          	add	a6,a2,a3
   14100:	0a051663          	bnez	a0,141ac <_free_r+0x104>
   14104:	ff043303          	ld	t1,-16(s0)
   14108:	00883803          	ld	a6,8(a6)
   1410c:	00024537          	lui	a0,0x24
   14110:	40670733          	sub	a4,a4,t1
   14114:	01073883          	ld	a7,16(a4)
   14118:	11050513          	addi	a0,a0,272 # 24110 <__malloc_av_+0x10>
   1411c:	006787b3          	add	a5,a5,t1
   14120:	00187813          	andi	a6,a6,1
   14124:	14a88a63          	beq	a7,a0,14278 <_free_r+0x1d0>
   14128:	01873303          	ld	t1,24(a4)
   1412c:	0068bc23          	sd	t1,24(a7)
   14130:	01133823          	sd	a7,16(t1)
   14134:	20080463          	beqz	a6,1433c <_free_r+0x294>
   14138:	0017e693          	ori	a3,a5,1
   1413c:	00d73423          	sd	a3,8(a4)
   14140:	00f63023          	sd	a5,0(a2)
   14144:	1ff00693          	li	a3,511
   14148:	0af6ee63          	bltu	a3,a5,14204 <_free_r+0x15c>
   1414c:	0037d793          	srli	a5,a5,0x3
   14150:	0017869b          	addiw	a3,a5,1
   14154:	0016969b          	slliw	a3,a3,0x1
   14158:	00369693          	slli	a3,a3,0x3
   1415c:	0085b803          	ld	a6,8(a1)
   14160:	00d586b3          	add	a3,a1,a3
   14164:	0006b503          	ld	a0,0(a3)
   14168:	4027d61b          	sraiw	a2,a5,0x2
   1416c:	00100793          	li	a5,1
   14170:	00c797b3          	sll	a5,a5,a2
   14174:	0107e7b3          	or	a5,a5,a6
   14178:	ff068613          	addi	a2,a3,-16
   1417c:	00c73c23          	sd	a2,24(a4)
   14180:	00a73823          	sd	a0,16(a4)
   14184:	00f5b423          	sd	a5,8(a1)
   14188:	00e6b023          	sd	a4,0(a3)
   1418c:	00e53c23          	sd	a4,24(a0)
   14190:	01013403          	ld	s0,16(sp)
   14194:	01813083          	ld	ra,24(sp)
   14198:	00048513          	mv	a0,s1
   1419c:	00813483          	ld	s1,8(sp)
   141a0:	02010113          	addi	sp,sp,32
   141a4:	00004317          	auipc	t1,0x4
   141a8:	4c830067          	jr	1224(t1) # 1866c <__malloc_unlock>
   141ac:	00883503          	ld	a0,8(a6)
   141b0:	00157513          	andi	a0,a0,1
   141b4:	02051e63          	bnez	a0,141f0 <_free_r+0x148>
   141b8:	00024537          	lui	a0,0x24
   141bc:	00d787b3          	add	a5,a5,a3
   141c0:	11050513          	addi	a0,a0,272 # 24110 <__malloc_av_+0x10>
   141c4:	01063683          	ld	a3,16(a2)
   141c8:	0017e893          	ori	a7,a5,1
   141cc:	00f70833          	add	a6,a4,a5
   141d0:	18a68463          	beq	a3,a0,14358 <_free_r+0x2b0>
   141d4:	01863603          	ld	a2,24(a2)
   141d8:	00c6bc23          	sd	a2,24(a3)
   141dc:	00d63823          	sd	a3,16(a2)
   141e0:	01173423          	sd	a7,8(a4)
   141e4:	00f83023          	sd	a5,0(a6)
   141e8:	f5dff06f          	j	14144 <_free_r+0x9c>
   141ec:	00008067          	ret
   141f0:	0017e693          	ori	a3,a5,1
   141f4:	fed43c23          	sd	a3,-8(s0)
   141f8:	00f63023          	sd	a5,0(a2)
   141fc:	1ff00693          	li	a3,511
   14200:	f4f6f6e3          	bgeu	a3,a5,1414c <_free_r+0xa4>
   14204:	0097d693          	srli	a3,a5,0x9
   14208:	00400613          	li	a2,4
   1420c:	10d66463          	bltu	a2,a3,14314 <_free_r+0x26c>
   14210:	0067d693          	srli	a3,a5,0x6
   14214:	0396851b          	addiw	a0,a3,57
   14218:	0015151b          	slliw	a0,a0,0x1
   1421c:	0386861b          	addiw	a2,a3,56
   14220:	00351513          	slli	a0,a0,0x3
   14224:	00a58533          	add	a0,a1,a0
   14228:	00053683          	ld	a3,0(a0)
   1422c:	ff050513          	addi	a0,a0,-16
   14230:	14d50263          	beq	a0,a3,14374 <_free_r+0x2cc>
   14234:	0086b603          	ld	a2,8(a3)
   14238:	ffc67613          	andi	a2,a2,-4
   1423c:	00c7f663          	bgeu	a5,a2,14248 <_free_r+0x1a0>
   14240:	0106b683          	ld	a3,16(a3)
   14244:	fed518e3          	bne	a0,a3,14234 <_free_r+0x18c>
   14248:	0186b503          	ld	a0,24(a3)
   1424c:	00a73c23          	sd	a0,24(a4)
   14250:	00d73823          	sd	a3,16(a4)
   14254:	01013403          	ld	s0,16(sp)
   14258:	00e53823          	sd	a4,16(a0)
   1425c:	01813083          	ld	ra,24(sp)
   14260:	00048513          	mv	a0,s1
   14264:	00813483          	ld	s1,8(sp)
   14268:	00e6bc23          	sd	a4,24(a3)
   1426c:	02010113          	addi	sp,sp,32
   14270:	00004317          	auipc	t1,0x4
   14274:	3fc30067          	jr	1020(t1) # 1866c <__malloc_unlock>
   14278:	16081263          	bnez	a6,143dc <_free_r+0x334>
   1427c:	01863583          	ld	a1,24(a2)
   14280:	01063603          	ld	a2,16(a2)
   14284:	00f687b3          	add	a5,a3,a5
   14288:	01013403          	ld	s0,16(sp)
   1428c:	00b63c23          	sd	a1,24(a2)
   14290:	00c5b823          	sd	a2,16(a1)
   14294:	0017e693          	ori	a3,a5,1
   14298:	01813083          	ld	ra,24(sp)
   1429c:	00d73423          	sd	a3,8(a4)
   142a0:	00048513          	mv	a0,s1
   142a4:	00f70733          	add	a4,a4,a5
   142a8:	00813483          	ld	s1,8(sp)
   142ac:	00f73023          	sd	a5,0(a4)
   142b0:	02010113          	addi	sp,sp,32
   142b4:	00004317          	auipc	t1,0x4
   142b8:	3b830067          	jr	952(t1) # 1866c <__malloc_unlock>
   142bc:	00157513          	andi	a0,a0,1
   142c0:	00d787b3          	add	a5,a5,a3
   142c4:	02051063          	bnez	a0,142e4 <_free_r+0x23c>
   142c8:	ff043503          	ld	a0,-16(s0)
   142cc:	40a70733          	sub	a4,a4,a0
   142d0:	01873683          	ld	a3,24(a4)
   142d4:	01073603          	ld	a2,16(a4)
   142d8:	00a787b3          	add	a5,a5,a0
   142dc:	00d63c23          	sd	a3,24(a2)
   142e0:	00c6b823          	sd	a2,16(a3)
   142e4:	000256b7          	lui	a3,0x25
   142e8:	0017e613          	ori	a2,a5,1
   142ec:	9686b683          	ld	a3,-1688(a3) # 24968 <__malloc_trim_threshold>
   142f0:	00c73423          	sd	a2,8(a4)
   142f4:	00e5b823          	sd	a4,16(a1)
   142f8:	e8d7ece3          	bltu	a5,a3,14190 <_free_r+0xe8>
   142fc:	000257b7          	lui	a5,0x25
   14300:	9907b583          	ld	a1,-1648(a5) # 24990 <__malloc_top_pad>
   14304:	00048513          	mv	a0,s1
   14308:	00000097          	auipc	ra,0x0
   1430c:	c48080e7          	jalr	-952(ra) # 13f50 <_malloc_trim_r>
   14310:	e81ff06f          	j	14190 <_free_r+0xe8>
   14314:	01400613          	li	a2,20
   14318:	02d67663          	bgeu	a2,a3,14344 <_free_r+0x29c>
   1431c:	05400613          	li	a2,84
   14320:	06d66863          	bltu	a2,a3,14390 <_free_r+0x2e8>
   14324:	00c7d693          	srli	a3,a5,0xc
   14328:	06f6851b          	addiw	a0,a3,111
   1432c:	0015151b          	slliw	a0,a0,0x1
   14330:	06e6861b          	addiw	a2,a3,110
   14334:	00351513          	slli	a0,a0,0x3
   14338:	eedff06f          	j	14224 <_free_r+0x17c>
   1433c:	00d787b3          	add	a5,a5,a3
   14340:	e85ff06f          	j	141c4 <_free_r+0x11c>
   14344:	05c6851b          	addiw	a0,a3,92
   14348:	0015151b          	slliw	a0,a0,0x1
   1434c:	05b6861b          	addiw	a2,a3,91
   14350:	00351513          	slli	a0,a0,0x3
   14354:	ed1ff06f          	j	14224 <_free_r+0x17c>
   14358:	02e5b423          	sd	a4,40(a1)
   1435c:	02e5b023          	sd	a4,32(a1)
   14360:	00a73c23          	sd	a0,24(a4)
   14364:	00a73823          	sd	a0,16(a4)
   14368:	01173423          	sd	a7,8(a4)
   1436c:	00f83023          	sd	a5,0(a6)
   14370:	e21ff06f          	j	14190 <_free_r+0xe8>
   14374:	0085b803          	ld	a6,8(a1)
   14378:	4026561b          	sraiw	a2,a2,0x2
   1437c:	00100793          	li	a5,1
   14380:	00c79633          	sll	a2,a5,a2
   14384:	01066633          	or	a2,a2,a6
   14388:	00c5b423          	sd	a2,8(a1)
   1438c:	ec1ff06f          	j	1424c <_free_r+0x1a4>
   14390:	15400613          	li	a2,340
   14394:	00d66e63          	bltu	a2,a3,143b0 <_free_r+0x308>
   14398:	00f7d693          	srli	a3,a5,0xf
   1439c:	0786851b          	addiw	a0,a3,120
   143a0:	0015151b          	slliw	a0,a0,0x1
   143a4:	0776861b          	addiw	a2,a3,119
   143a8:	00351513          	slli	a0,a0,0x3
   143ac:	e79ff06f          	j	14224 <_free_r+0x17c>
   143b0:	55400613          	li	a2,1364
   143b4:	00d66e63          	bltu	a2,a3,143d0 <_free_r+0x328>
   143b8:	0127d693          	srli	a3,a5,0x12
   143bc:	07d6851b          	addiw	a0,a3,125
   143c0:	0015151b          	slliw	a0,a0,0x1
   143c4:	07c6861b          	addiw	a2,a3,124
   143c8:	00351513          	slli	a0,a0,0x3
   143cc:	e59ff06f          	j	14224 <_free_r+0x17c>
   143d0:	7f000513          	li	a0,2032
   143d4:	07e00613          	li	a2,126
   143d8:	e4dff06f          	j	14224 <_free_r+0x17c>
   143dc:	0017e693          	ori	a3,a5,1
   143e0:	00d73423          	sd	a3,8(a4)
   143e4:	00f63023          	sd	a5,0(a2)
   143e8:	da9ff06f          	j	14190 <_free_r+0xe8>

00000000000143ec <__sfvwrite_r>:
   143ec:	01063783          	ld	a5,16(a2)
   143f0:	28078e63          	beqz	a5,1468c <__sfvwrite_r+0x2a0>
   143f4:	0105d783          	lhu	a5,16(a1)
   143f8:	fa010113          	addi	sp,sp,-96
   143fc:	04813823          	sd	s0,80(sp)
   14400:	03413823          	sd	s4,48(sp)
   14404:	03513423          	sd	s5,40(sp)
   14408:	04113c23          	sd	ra,88(sp)
   1440c:	04913423          	sd	s1,72(sp)
   14410:	05213023          	sd	s2,64(sp)
   14414:	03313c23          	sd	s3,56(sp)
   14418:	03613023          	sd	s6,32(sp)
   1441c:	01713c23          	sd	s7,24(sp)
   14420:	01813823          	sd	s8,16(sp)
   14424:	01913423          	sd	s9,8(sp)
   14428:	01a13023          	sd	s10,0(sp)
   1442c:	0087f713          	andi	a4,a5,8
   14430:	00060a13          	mv	s4,a2
   14434:	00050a93          	mv	s5,a0
   14438:	00058413          	mv	s0,a1
   1443c:	08070863          	beqz	a4,144cc <__sfvwrite_r+0xe0>
   14440:	0185b703          	ld	a4,24(a1)
   14444:	08070463          	beqz	a4,144cc <__sfvwrite_r+0xe0>
   14448:	0027f713          	andi	a4,a5,2
   1444c:	000a3903          	ld	s2,0(s4)
   14450:	0a070063          	beqz	a4,144f0 <__sfvwrite_r+0x104>
   14454:	04043783          	ld	a5,64(s0)
   14458:	03043583          	ld	a1,48(s0)
   1445c:	80000b37          	lui	s6,0x80000
   14460:	00000993          	li	s3,0
   14464:	00000493          	li	s1,0
   14468:	c00b4b13          	xori	s6,s6,-1024
   1446c:	00098613          	mv	a2,s3
   14470:	000a8513          	mv	a0,s5
   14474:	04048463          	beqz	s1,144bc <__sfvwrite_r+0xd0>
   14478:	00048693          	mv	a3,s1
   1447c:	009b7463          	bgeu	s6,s1,14484 <__sfvwrite_r+0x98>
   14480:	000b0693          	mv	a3,s6
   14484:	0006869b          	sext.w	a3,a3
   14488:	000780e7          	jalr	a5
   1448c:	1ea05663          	blez	a0,14678 <__sfvwrite_r+0x28c>
   14490:	010a3783          	ld	a5,16(s4)
   14494:	00a989b3          	add	s3,s3,a0
   14498:	40a484b3          	sub	s1,s1,a0
   1449c:	40a78533          	sub	a0,a5,a0
   144a0:	00aa3823          	sd	a0,16(s4)
   144a4:	18050263          	beqz	a0,14628 <__sfvwrite_r+0x23c>
   144a8:	04043783          	ld	a5,64(s0)
   144ac:	03043583          	ld	a1,48(s0)
   144b0:	00098613          	mv	a2,s3
   144b4:	000a8513          	mv	a0,s5
   144b8:	fc0490e3          	bnez	s1,14478 <__sfvwrite_r+0x8c>
   144bc:	00093983          	ld	s3,0(s2)
   144c0:	00893483          	ld	s1,8(s2)
   144c4:	01090913          	addi	s2,s2,16
   144c8:	fa5ff06f          	j	1446c <__sfvwrite_r+0x80>
   144cc:	00040593          	mv	a1,s0
   144d0:	000a8513          	mv	a0,s5
   144d4:	fffff097          	auipc	ra,0xfffff
   144d8:	0f0080e7          	jalr	240(ra) # 135c4 <__swsetup_r>
   144dc:	3e051463          	bnez	a0,148c4 <__sfvwrite_r+0x4d8>
   144e0:	01045783          	lhu	a5,16(s0)
   144e4:	000a3903          	ld	s2,0(s4)
   144e8:	0027f713          	andi	a4,a5,2
   144ec:	f60714e3          	bnez	a4,14454 <__sfvwrite_r+0x68>
   144f0:	0017f713          	andi	a4,a5,1
   144f4:	0a071463          	bnez	a4,1459c <__sfvwrite_r+0x1b0>
   144f8:	00c42483          	lw	s1,12(s0)
   144fc:	00043503          	ld	a0,0(s0)
   14500:	80000b37          	lui	s6,0x80000
   14504:	ffeb4b93          	xori	s7,s6,-2
   14508:	00000c13          	li	s8,0
   1450c:	00000993          	li	s3,0
   14510:	fffb4b13          	not	s6,s6
   14514:	00048c93          	mv	s9,s1
   14518:	06098a63          	beqz	s3,1458c <__sfvwrite_r+0x1a0>
   1451c:	2007f713          	andi	a4,a5,512
   14520:	1e070263          	beqz	a4,14704 <__sfvwrite_r+0x318>
   14524:	00048d13          	mv	s10,s1
   14528:	2699fa63          	bgeu	s3,s1,1479c <__sfvwrite_r+0x3b0>
   1452c:	00098c93          	mv	s9,s3
   14530:	00098d13          	mv	s10,s3
   14534:	000d0613          	mv	a2,s10
   14538:	000c0593          	mv	a1,s8
   1453c:	00004097          	auipc	ra,0x4
   14540:	00c080e7          	jalr	12(ra) # 18548 <memmove>
   14544:	00c42703          	lw	a4,12(s0)
   14548:	00043783          	ld	a5,0(s0)
   1454c:	00098493          	mv	s1,s3
   14550:	41970cbb          	subw	s9,a4,s9
   14554:	01a787b3          	add	a5,a5,s10
   14558:	01942623          	sw	s9,12(s0)
   1455c:	00f43023          	sd	a5,0(s0)
   14560:	00000993          	li	s3,0
   14564:	010a3603          	ld	a2,16(s4)
   14568:	009c0c33          	add	s8,s8,s1
   1456c:	409604b3          	sub	s1,a2,s1
   14570:	009a3823          	sd	s1,16(s4)
   14574:	0a048a63          	beqz	s1,14628 <__sfvwrite_r+0x23c>
   14578:	00c42483          	lw	s1,12(s0)
   1457c:	00043503          	ld	a0,0(s0)
   14580:	01045783          	lhu	a5,16(s0)
   14584:	00048c93          	mv	s9,s1
   14588:	f8099ae3          	bnez	s3,1451c <__sfvwrite_r+0x130>
   1458c:	00093c03          	ld	s8,0(s2)
   14590:	00893983          	ld	s3,8(s2)
   14594:	01090913          	addi	s2,s2,16
   14598:	f7dff06f          	j	14514 <__sfvwrite_r+0x128>
   1459c:	00000993          	li	s3,0
   145a0:	00000513          	li	a0,0
   145a4:	00000c93          	li	s9,0
   145a8:	00000c13          	li	s8,0
   145ac:	0e0c0463          	beqz	s8,14694 <__sfvwrite_r+0x2a8>
   145b0:	0e050a63          	beqz	a0,146a4 <__sfvwrite_r+0x2b8>
   145b4:	00098b93          	mv	s7,s3
   145b8:	013c7463          	bgeu	s8,s3,145c0 <__sfvwrite_r+0x1d4>
   145bc:	000c0b93          	mv	s7,s8
   145c0:	00043503          	ld	a0,0(s0)
   145c4:	01843783          	ld	a5,24(s0)
   145c8:	02042683          	lw	a3,32(s0)
   145cc:	000b8493          	mv	s1,s7
   145d0:	00a7f863          	bgeu	a5,a0,145e0 <__sfvwrite_r+0x1f4>
   145d4:	00c42783          	lw	a5,12(s0)
   145d8:	00d78b3b          	addw	s6,a5,a3
   145dc:	0f7b4663          	blt	s6,s7,146c8 <__sfvwrite_r+0x2dc>
   145e0:	26dbc063          	blt	s7,a3,14840 <__sfvwrite_r+0x454>
   145e4:	04043783          	ld	a5,64(s0)
   145e8:	03043583          	ld	a1,48(s0)
   145ec:	000c8613          	mv	a2,s9
   145f0:	000a8513          	mv	a0,s5
   145f4:	000780e7          	jalr	a5
   145f8:	00050493          	mv	s1,a0
   145fc:	06a05e63          	blez	a0,14678 <__sfvwrite_r+0x28c>
   14600:	0005079b          	sext.w	a5,a0
   14604:	40f989bb          	subw	s3,s3,a5
   14608:	00100513          	li	a0,1
   1460c:	04098c63          	beqz	s3,14664 <__sfvwrite_r+0x278>
   14610:	010a3783          	ld	a5,16(s4)
   14614:	009c8cb3          	add	s9,s9,s1
   14618:	409c0c33          	sub	s8,s8,s1
   1461c:	409784b3          	sub	s1,a5,s1
   14620:	009a3823          	sd	s1,16(s4)
   14624:	f80494e3          	bnez	s1,145ac <__sfvwrite_r+0x1c0>
   14628:	00000513          	li	a0,0
   1462c:	05813083          	ld	ra,88(sp)
   14630:	05013403          	ld	s0,80(sp)
   14634:	04813483          	ld	s1,72(sp)
   14638:	04013903          	ld	s2,64(sp)
   1463c:	03813983          	ld	s3,56(sp)
   14640:	03013a03          	ld	s4,48(sp)
   14644:	02813a83          	ld	s5,40(sp)
   14648:	02013b03          	ld	s6,32(sp)
   1464c:	01813b83          	ld	s7,24(sp)
   14650:	01013c03          	ld	s8,16(sp)
   14654:	00813c83          	ld	s9,8(sp)
   14658:	00013d03          	ld	s10,0(sp)
   1465c:	06010113          	addi	sp,sp,96
   14660:	00008067          	ret
   14664:	00040593          	mv	a1,s0
   14668:	000a8513          	mv	a0,s5
   1466c:	fffff097          	auipc	ra,0xfffff
   14670:	450080e7          	jalr	1104(ra) # 13abc <_fflush_r>
   14674:	f8050ee3          	beqz	a0,14610 <__sfvwrite_r+0x224>
   14678:	01041783          	lh	a5,16(s0)
   1467c:	0407e793          	ori	a5,a5,64
   14680:	00f41823          	sh	a5,16(s0)
   14684:	fff00513          	li	a0,-1
   14688:	fa5ff06f          	j	1462c <__sfvwrite_r+0x240>
   1468c:	00000513          	li	a0,0
   14690:	00008067          	ret
   14694:	00893c03          	ld	s8,8(s2)
   14698:	00093c83          	ld	s9,0(s2)
   1469c:	01090913          	addi	s2,s2,16
   146a0:	fe0c0ae3          	beqz	s8,14694 <__sfvwrite_r+0x2a8>
   146a4:	000c0613          	mv	a2,s8
   146a8:	00a00593          	li	a1,10
   146ac:	000c8513          	mv	a0,s9
   146b0:	00004097          	auipc	ra,0x4
   146b4:	c9c080e7          	jalr	-868(ra) # 1834c <memchr>
   146b8:	1e050a63          	beqz	a0,148ac <__sfvwrite_r+0x4c0>
   146bc:	00150513          	addi	a0,a0,1
   146c0:	419509bb          	subw	s3,a0,s9
   146c4:	ef1ff06f          	j	145b4 <__sfvwrite_r+0x1c8>
   146c8:	000c8593          	mv	a1,s9
   146cc:	000b0613          	mv	a2,s6
   146d0:	00004097          	auipc	ra,0x4
   146d4:	e78080e7          	jalr	-392(ra) # 18548 <memmove>
   146d8:	00043783          	ld	a5,0(s0)
   146dc:	00040593          	mv	a1,s0
   146e0:	000a8513          	mv	a0,s5
   146e4:	016787b3          	add	a5,a5,s6
   146e8:	00f43023          	sd	a5,0(s0)
   146ec:	fffff097          	auipc	ra,0xfffff
   146f0:	3d0080e7          	jalr	976(ra) # 13abc <_fflush_r>
   146f4:	f80512e3          	bnez	a0,14678 <__sfvwrite_r+0x28c>
   146f8:	000b0793          	mv	a5,s6
   146fc:	000b0493          	mv	s1,s6
   14700:	f05ff06f          	j	14604 <__sfvwrite_r+0x218>
   14704:	01843783          	ld	a5,24(s0)
   14708:	04a7e263          	bltu	a5,a0,1474c <__sfvwrite_r+0x360>
   1470c:	02042783          	lw	a5,32(s0)
   14710:	02f9ee63          	bltu	s3,a5,1474c <__sfvwrite_r+0x360>
   14714:	00098693          	mv	a3,s3
   14718:	013bf463          	bgeu	s7,s3,14720 <__sfvwrite_r+0x334>
   1471c:	000b0693          	mv	a3,s6
   14720:	02f6c6bb          	divw	a3,a3,a5
   14724:	04043703          	ld	a4,64(s0)
   14728:	03043583          	ld	a1,48(s0)
   1472c:	000c0613          	mv	a2,s8
   14730:	000a8513          	mv	a0,s5
   14734:	02f686bb          	mulw	a3,a3,a5
   14738:	000700e7          	jalr	a4
   1473c:	00050493          	mv	s1,a0
   14740:	f2a05ce3          	blez	a0,14678 <__sfvwrite_r+0x28c>
   14744:	409989b3          	sub	s3,s3,s1
   14748:	e1dff06f          	j	14564 <__sfvwrite_r+0x178>
   1474c:	0099f463          	bgeu	s3,s1,14754 <__sfvwrite_r+0x368>
   14750:	00098493          	mv	s1,s3
   14754:	00048613          	mv	a2,s1
   14758:	000c0593          	mv	a1,s8
   1475c:	00004097          	auipc	ra,0x4
   14760:	dec080e7          	jalr	-532(ra) # 18548 <memmove>
   14764:	00c42783          	lw	a5,12(s0)
   14768:	00043703          	ld	a4,0(s0)
   1476c:	409786bb          	subw	a3,a5,s1
   14770:	00970733          	add	a4,a4,s1
   14774:	00d42623          	sw	a3,12(s0)
   14778:	00e43023          	sd	a4,0(s0)
   1477c:	fc0694e3          	bnez	a3,14744 <__sfvwrite_r+0x358>
   14780:	00040593          	mv	a1,s0
   14784:	000a8513          	mv	a0,s5
   14788:	fffff097          	auipc	ra,0xfffff
   1478c:	334080e7          	jalr	820(ra) # 13abc <_fflush_r>
   14790:	ee0514e3          	bnez	a0,14678 <__sfvwrite_r+0x28c>
   14794:	409989b3          	sub	s3,s3,s1
   14798:	dcdff06f          	j	14564 <__sfvwrite_r+0x178>
   1479c:	4807f713          	andi	a4,a5,1152
   147a0:	d8070ae3          	beqz	a4,14534 <__sfvwrite_r+0x148>
   147a4:	02042483          	lw	s1,32(s0)
   147a8:	01843583          	ld	a1,24(s0)
   147ac:	00198713          	addi	a4,s3,1
   147b0:	0014969b          	slliw	a3,s1,0x1
   147b4:	009686bb          	addw	a3,a3,s1
   147b8:	40b50533          	sub	a0,a0,a1
   147bc:	01f6d49b          	srliw	s1,a3,0x1f
   147c0:	00050d1b          	sext.w	s10,a0
   147c4:	00d484bb          	addw	s1,s1,a3
   147c8:	4014d49b          	sraiw	s1,s1,0x1
   147cc:	01a70733          	add	a4,a4,s10
   147d0:	00e4f663          	bgeu	s1,a4,147dc <__sfvwrite_r+0x3f0>
   147d4:	0019849b          	addiw	s1,s3,1
   147d8:	00a484bb          	addw	s1,s1,a0
   147dc:	4007f793          	andi	a5,a5,1024
   147e0:	08078863          	beqz	a5,14870 <__sfvwrite_r+0x484>
   147e4:	00048593          	mv	a1,s1
   147e8:	000a8513          	mv	a0,s5
   147ec:	00003097          	auipc	ra,0x3
   147f0:	298080e7          	jalr	664(ra) # 17a84 <_malloc_r>
   147f4:	00050c93          	mv	s9,a0
   147f8:	0a050e63          	beqz	a0,148b4 <__sfvwrite_r+0x4c8>
   147fc:	01843583          	ld	a1,24(s0)
   14800:	000d0613          	mv	a2,s10
   14804:	00004097          	auipc	ra,0x4
   14808:	c28080e7          	jalr	-984(ra) # 1842c <memcpy>
   1480c:	01045783          	lhu	a5,16(s0)
   14810:	b7f7f793          	andi	a5,a5,-1153
   14814:	0807e793          	ori	a5,a5,128
   14818:	00f41823          	sh	a5,16(s0)
   1481c:	01ac8533          	add	a0,s9,s10
   14820:	41a487bb          	subw	a5,s1,s10
   14824:	01943c23          	sd	s9,24(s0)
   14828:	00a43023          	sd	a0,0(s0)
   1482c:	02942023          	sw	s1,32(s0)
   14830:	00098c93          	mv	s9,s3
   14834:	00f42623          	sw	a5,12(s0)
   14838:	00098d13          	mv	s10,s3
   1483c:	cf9ff06f          	j	14534 <__sfvwrite_r+0x148>
   14840:	000b8613          	mv	a2,s7
   14844:	000c8593          	mv	a1,s9
   14848:	00004097          	auipc	ra,0x4
   1484c:	d00080e7          	jalr	-768(ra) # 18548 <memmove>
   14850:	00c42703          	lw	a4,12(s0)
   14854:	00043603          	ld	a2,0(s0)
   14858:	000b879b          	sext.w	a5,s7
   1485c:	4177073b          	subw	a4,a4,s7
   14860:	01760633          	add	a2,a2,s7
   14864:	00e42623          	sw	a4,12(s0)
   14868:	00c43023          	sd	a2,0(s0)
   1486c:	d99ff06f          	j	14604 <__sfvwrite_r+0x218>
   14870:	00048613          	mv	a2,s1
   14874:	000a8513          	mv	a0,s5
   14878:	00005097          	auipc	ra,0x5
   1487c:	fb4080e7          	jalr	-76(ra) # 1982c <_realloc_r>
   14880:	00050c93          	mv	s9,a0
   14884:	f8051ce3          	bnez	a0,1481c <__sfvwrite_r+0x430>
   14888:	01843583          	ld	a1,24(s0)
   1488c:	000a8513          	mv	a0,s5
   14890:	00000097          	auipc	ra,0x0
   14894:	818080e7          	jalr	-2024(ra) # 140a8 <_free_r>
   14898:	01041783          	lh	a5,16(s0)
   1489c:	00c00713          	li	a4,12
   148a0:	00eaa023          	sw	a4,0(s5)
   148a4:	f7f7f793          	andi	a5,a5,-129
   148a8:	dd5ff06f          	j	1467c <__sfvwrite_r+0x290>
   148ac:	001c099b          	addiw	s3,s8,1
   148b0:	d05ff06f          	j	145b4 <__sfvwrite_r+0x1c8>
   148b4:	00c00713          	li	a4,12
   148b8:	01041783          	lh	a5,16(s0)
   148bc:	00eaa023          	sw	a4,0(s5)
   148c0:	dbdff06f          	j	1467c <__sfvwrite_r+0x290>
   148c4:	fff00513          	li	a0,-1
   148c8:	d65ff06f          	j	1462c <__sfvwrite_r+0x240>

00000000000148cc <_fwalk>:
   148cc:	fb010113          	addi	sp,sp,-80
   148d0:	03213823          	sd	s2,48(sp)
   148d4:	03313423          	sd	s3,40(sp)
   148d8:	03413023          	sd	s4,32(sp)
   148dc:	01513c23          	sd	s5,24(sp)
   148e0:	01613823          	sd	s6,16(sp)
   148e4:	01713423          	sd	s7,8(sp)
   148e8:	04113423          	sd	ra,72(sp)
   148ec:	04813023          	sd	s0,64(sp)
   148f0:	02913c23          	sd	s1,56(sp)
   148f4:	00058a13          	mv	s4,a1
   148f8:	52050913          	addi	s2,a0,1312
   148fc:	00000b13          	li	s6,0
   14900:	0b000a93          	li	s5,176
   14904:	00100b93          	li	s7,1
   14908:	fff00993          	li	s3,-1
   1490c:	00892783          	lw	a5,8(s2)
   14910:	01093403          	ld	s0,16(s2)
   14914:	04f05263          	blez	a5,14958 <_fwalk+0x8c>
   14918:	fff7849b          	addiw	s1,a5,-1
   1491c:	02049493          	slli	s1,s1,0x20
   14920:	0204d493          	srli	s1,s1,0x20
   14924:	00148493          	addi	s1,s1,1
   14928:	035484b3          	mul	s1,s1,s5
   1492c:	009404b3          	add	s1,s0,s1
   14930:	01045783          	lhu	a5,16(s0)
   14934:	00fbfe63          	bgeu	s7,a5,14950 <_fwalk+0x84>
   14938:	01241783          	lh	a5,18(s0)
   1493c:	00040513          	mv	a0,s0
   14940:	01378863          	beq	a5,s3,14950 <_fwalk+0x84>
   14944:	000a00e7          	jalr	s4
   14948:	01656b33          	or	s6,a0,s6
   1494c:	000b0b1b          	sext.w	s6,s6
   14950:	0b040413          	addi	s0,s0,176
   14954:	fc849ee3          	bne	s1,s0,14930 <_fwalk+0x64>
   14958:	00093903          	ld	s2,0(s2)
   1495c:	fa0918e3          	bnez	s2,1490c <_fwalk+0x40>
   14960:	04813083          	ld	ra,72(sp)
   14964:	04013403          	ld	s0,64(sp)
   14968:	03813483          	ld	s1,56(sp)
   1496c:	03013903          	ld	s2,48(sp)
   14970:	02813983          	ld	s3,40(sp)
   14974:	02013a03          	ld	s4,32(sp)
   14978:	01813a83          	ld	s5,24(sp)
   1497c:	00813b83          	ld	s7,8(sp)
   14980:	000b0513          	mv	a0,s6
   14984:	01013b03          	ld	s6,16(sp)
   14988:	05010113          	addi	sp,sp,80
   1498c:	00008067          	ret

0000000000014990 <_fwalk_reent>:
   14990:	fb010113          	addi	sp,sp,-80
   14994:	03213823          	sd	s2,48(sp)
   14998:	03313423          	sd	s3,40(sp)
   1499c:	03413023          	sd	s4,32(sp)
   149a0:	01513c23          	sd	s5,24(sp)
   149a4:	01613823          	sd	s6,16(sp)
   149a8:	01713423          	sd	s7,8(sp)
   149ac:	01813023          	sd	s8,0(sp)
   149b0:	04113423          	sd	ra,72(sp)
   149b4:	04813023          	sd	s0,64(sp)
   149b8:	02913c23          	sd	s1,56(sp)
   149bc:	00050c13          	mv	s8,a0
   149c0:	00058a13          	mv	s4,a1
   149c4:	52050913          	addi	s2,a0,1312
   149c8:	00000b13          	li	s6,0
   149cc:	0b000a93          	li	s5,176
   149d0:	00100b93          	li	s7,1
   149d4:	fff00993          	li	s3,-1
   149d8:	00892783          	lw	a5,8(s2)
   149dc:	01093403          	ld	s0,16(s2)
   149e0:	04f05463          	blez	a5,14a28 <_fwalk_reent+0x98>
   149e4:	fff7849b          	addiw	s1,a5,-1
   149e8:	02049493          	slli	s1,s1,0x20
   149ec:	0204d493          	srli	s1,s1,0x20
   149f0:	00148493          	addi	s1,s1,1
   149f4:	035484b3          	mul	s1,s1,s5
   149f8:	009404b3          	add	s1,s0,s1
   149fc:	01045783          	lhu	a5,16(s0)
   14a00:	02fbf063          	bgeu	s7,a5,14a20 <_fwalk_reent+0x90>
   14a04:	01241783          	lh	a5,18(s0)
   14a08:	00040593          	mv	a1,s0
   14a0c:	000c0513          	mv	a0,s8
   14a10:	01378863          	beq	a5,s3,14a20 <_fwalk_reent+0x90>
   14a14:	000a00e7          	jalr	s4
   14a18:	01656b33          	or	s6,a0,s6
   14a1c:	000b0b1b          	sext.w	s6,s6
   14a20:	0b040413          	addi	s0,s0,176
   14a24:	fc849ce3          	bne	s1,s0,149fc <_fwalk_reent+0x6c>
   14a28:	00093903          	ld	s2,0(s2)
   14a2c:	fa0916e3          	bnez	s2,149d8 <_fwalk_reent+0x48>
   14a30:	04813083          	ld	ra,72(sp)
   14a34:	04013403          	ld	s0,64(sp)
   14a38:	03813483          	ld	s1,56(sp)
   14a3c:	03013903          	ld	s2,48(sp)
   14a40:	02813983          	ld	s3,40(sp)
   14a44:	02013a03          	ld	s4,32(sp)
   14a48:	01813a83          	ld	s5,24(sp)
   14a4c:	00813b83          	ld	s7,8(sp)
   14a50:	00013c03          	ld	s8,0(sp)
   14a54:	000b0513          	mv	a0,s6
   14a58:	01013b03          	ld	s6,16(sp)
   14a5c:	05010113          	addi	sp,sp,80
   14a60:	00008067          	ret

0000000000014a64 <eshdn1>:
   14a64:	00450693          	addi	a3,a0,4
   14a68:	00000793          	li	a5,0
   14a6c:	01a50513          	addi	a0,a0,26
   14a70:	ffff8837          	lui	a6,0xffff8
   14a74:	01c0006f          	j	14a90 <eshdn1+0x2c>
   14a78:	0017979b          	slliw	a5,a5,0x1
   14a7c:	00e69023          	sh	a4,0(a3)
   14a80:	03079793          	slli	a5,a5,0x30
   14a84:	00268693          	addi	a3,a3,2
   14a88:	0307d793          	srli	a5,a5,0x30
   14a8c:	02d50e63          	beq	a0,a3,14ac8 <eshdn1+0x64>
   14a90:	0006d703          	lhu	a4,0(a3)
   14a94:	00177613          	andi	a2,a4,1
   14a98:	00060463          	beqz	a2,14aa0 <eshdn1+0x3c>
   14a9c:	0017e793          	ori	a5,a5,1
   14aa0:	00175713          	srli	a4,a4,0x1
   14aa4:	0027f613          	andi	a2,a5,2
   14aa8:	010765b3          	or	a1,a4,a6
   14aac:	fc0606e3          	beqz	a2,14a78 <eshdn1+0x14>
   14ab0:	0017979b          	slliw	a5,a5,0x1
   14ab4:	00b69023          	sh	a1,0(a3)
   14ab8:	03079793          	slli	a5,a5,0x30
   14abc:	00268693          	addi	a3,a3,2
   14ac0:	0307d793          	srli	a5,a5,0x30
   14ac4:	fcd516e3          	bne	a0,a3,14a90 <eshdn1+0x2c>
   14ac8:	00008067          	ret

0000000000014acc <eshup1>:
   14acc:	01850693          	addi	a3,a0,24
   14ad0:	00000713          	li	a4,0
   14ad4:	00250513          	addi	a0,a0,2
   14ad8:	01c0006f          	j	14af4 <eshup1+0x28>
   14adc:	0017171b          	slliw	a4,a4,0x1
   14ae0:	00f69023          	sh	a5,0(a3)
   14ae4:	03071713          	slli	a4,a4,0x30
   14ae8:	ffe68693          	addi	a3,a3,-2
   14aec:	03075713          	srli	a4,a4,0x30
   14af0:	04d50663          	beq	a0,a3,14b3c <eshup1+0x70>
   14af4:	0006d783          	lhu	a5,0(a3)
   14af8:	0107961b          	slliw	a2,a5,0x10
   14afc:	4106561b          	sraiw	a2,a2,0x10
   14b00:	02061593          	slli	a1,a2,0x20
   14b04:	0017979b          	slliw	a5,a5,0x1
   14b08:	0005d463          	bgez	a1,14b10 <eshup1+0x44>
   14b0c:	00176713          	ori	a4,a4,1
   14b10:	03079793          	slli	a5,a5,0x30
   14b14:	0307d793          	srli	a5,a5,0x30
   14b18:	00277613          	andi	a2,a4,2
   14b1c:	0017e593          	ori	a1,a5,1
   14b20:	fa060ee3          	beqz	a2,14adc <eshup1+0x10>
   14b24:	0017171b          	slliw	a4,a4,0x1
   14b28:	00b69023          	sh	a1,0(a3)
   14b2c:	03071713          	slli	a4,a4,0x30
   14b30:	ffe68693          	addi	a3,a3,-2
   14b34:	03075713          	srli	a4,a4,0x30
   14b38:	fad51ee3          	bne	a0,a3,14af4 <eshup1+0x28>
   14b3c:	00008067          	ret

0000000000014b40 <m16m>:
   14b40:	fe010113          	addi	sp,sp,-32
   14b44:	00010e37          	lui	t3,0x10
   14b48:	00011b23          	sh	zero,22(sp)
   14b4c:	00011c23          	sh	zero,24(sp)
   14b50:	01858593          	addi	a1,a1,24
   14b54:	01810793          	addi	a5,sp,24
   14b58:	00410813          	addi	a6,sp,4
   14b5c:	fffe0e13          	addi	t3,t3,-1 # ffff <register_fini-0xb1>
   14b60:	0005d703          	lhu	a4,0(a1)
   14b64:	ffe78793          	addi	a5,a5,-2
   14b68:	ffe58593          	addi	a1,a1,-2
   14b6c:	02071863          	bnez	a4,14b9c <m16m+0x5c>
   14b70:	fe079f23          	sh	zero,-2(a5)
   14b74:	ff0796e3          	bne	a5,a6,14b60 <m16m+0x20>
   14b78:	00460613          	addi	a2,a2,4
   14b7c:	01a10693          	addi	a3,sp,26
   14b80:	0007d703          	lhu	a4,0(a5)
   14b84:	00278793          	addi	a5,a5,2
   14b88:	00260613          	addi	a2,a2,2
   14b8c:	fee61f23          	sh	a4,-2(a2)
   14b90:	fed798e3          	bne	a5,a3,14b80 <m16m+0x40>
   14b94:	02010113          	addi	sp,sp,32
   14b98:	00008067          	ret
   14b9c:	02a70733          	mul	a4,a4,a0
   14ba0:	0027d883          	lhu	a7,2(a5)
   14ba4:	0007d303          	lhu	t1,0(a5)
   14ba8:	01c776b3          	and	a3,a4,t3
   14bac:	011686b3          	add	a3,a3,a7
   14bb0:	01075713          	srli	a4,a4,0x10
   14bb4:	0106d893          	srli	a7,a3,0x10
   14bb8:	00670733          	add	a4,a4,t1
   14bbc:	01170733          	add	a4,a4,a7
   14bc0:	01075893          	srli	a7,a4,0x10
   14bc4:	00d79123          	sh	a3,2(a5)
   14bc8:	00e79023          	sh	a4,0(a5)
   14bcc:	ff179f23          	sh	a7,-2(a5)
   14bd0:	f90798e3          	bne	a5,a6,14b60 <m16m+0x20>
   14bd4:	fa5ff06f          	j	14b78 <m16m+0x38>

0000000000014bd8 <eisnan.part.0>:
   14bd8:	01250713          	addi	a4,a0,18
   14bdc:	00055783          	lhu	a5,0(a0)
   14be0:	00250513          	addi	a0,a0,2
   14be4:	00079863          	bnez	a5,14bf4 <eisnan.part.0+0x1c>
   14be8:	fee51ae3          	bne	a0,a4,14bdc <eisnan.part.0+0x4>
   14bec:	00000513          	li	a0,0
   14bf0:	00008067          	ret
   14bf4:	00100513          	li	a0,1
   14bf8:	00008067          	ret

0000000000014bfc <eneg>:
   14bfc:	fe010113          	addi	sp,sp,-32
   14c00:	00913423          	sd	s1,8(sp)
   14c04:	01255483          	lhu	s1,18(a0)
   14c08:	00813823          	sd	s0,16(sp)
   14c0c:	00113c23          	sd	ra,24(sp)
   14c10:	fff4c793          	not	a5,s1
   14c14:	03179713          	slli	a4,a5,0x31
   14c18:	00050413          	mv	s0,a0
   14c1c:	00071863          	bnez	a4,14c2c <eneg+0x30>
   14c20:	00000097          	auipc	ra,0x0
   14c24:	fb8080e7          	jalr	-72(ra) # 14bd8 <eisnan.part.0>
   14c28:	00051863          	bnez	a0,14c38 <eneg+0x3c>
   14c2c:	ffff87b7          	lui	a5,0xffff8
   14c30:	00f4c4b3          	xor	s1,s1,a5
   14c34:	00941923          	sh	s1,18(s0)
   14c38:	01813083          	ld	ra,24(sp)
   14c3c:	01013403          	ld	s0,16(sp)
   14c40:	00813483          	ld	s1,8(sp)
   14c44:	02010113          	addi	sp,sp,32
   14c48:	00008067          	ret

0000000000014c4c <eisneg>:
   14c4c:	ff010113          	addi	sp,sp,-16
   14c50:	00813023          	sd	s0,0(sp)
   14c54:	01255403          	lhu	s0,18(a0)
   14c58:	00113423          	sd	ra,8(sp)
   14c5c:	fff44793          	not	a5,s0
   14c60:	03179713          	slli	a4,a5,0x31
   14c64:	00071c63          	bnez	a4,14c7c <eisneg+0x30>
   14c68:	00000097          	auipc	ra,0x0
   14c6c:	f70080e7          	jalr	-144(ra) # 14bd8 <eisnan.part.0>
   14c70:	00050793          	mv	a5,a0
   14c74:	00000513          	li	a0,0
   14c78:	00079463          	bnez	a5,14c80 <eisneg+0x34>
   14c7c:	00f45513          	srli	a0,s0,0xf
   14c80:	00813083          	ld	ra,8(sp)
   14c84:	00013403          	ld	s0,0(sp)
   14c88:	01010113          	addi	sp,sp,16
   14c8c:	00008067          	ret

0000000000014c90 <emovi>:
   14c90:	01255783          	lhu	a5,18(a0)
   14c94:	fc010113          	addi	sp,sp,-64
   14c98:	02813823          	sd	s0,48(sp)
   14c9c:	00f7d79b          	srliw	a5,a5,0xf
   14ca0:	02913423          	sd	s1,40(sp)
   14ca4:	02113c23          	sd	ra,56(sp)
   14ca8:	03213023          	sd	s2,32(sp)
   14cac:	01313c23          	sd	s3,24(sp)
   14cb0:	40f007bb          	negw	a5,a5
   14cb4:	00f59023          	sh	a5,0(a1)
   14cb8:	01255783          	lhu	a5,18(a0)
   14cbc:	00008737          	lui	a4,0x8
   14cc0:	fff70713          	addi	a4,a4,-1 # 7fff <register_fini-0x80b1>
   14cc4:	00f777b3          	and	a5,a4,a5
   14cc8:	00f59123          	sh	a5,2(a1)
   14ccc:	00050493          	mv	s1,a0
   14cd0:	01050413          	addi	s0,a0,16
   14cd4:	04e78263          	beq	a5,a4,14d18 <emovi+0x88>
   14cd8:	00658793          	addi	a5,a1,6
   14cdc:	00059223          	sh	zero,4(a1)
   14ce0:	ffe50513          	addi	a0,a0,-2
   14ce4:	00045703          	lhu	a4,0(s0)
   14ce8:	ffe40413          	addi	s0,s0,-2
   14cec:	00278793          	addi	a5,a5,2 # ffffffffffff8002 <__BSS_END__+0xfffffffffffd35fa>
   14cf0:	fee79f23          	sh	a4,-2(a5)
   14cf4:	fe8518e3          	bne	a0,s0,14ce4 <emovi+0x54>
   14cf8:	00059c23          	sh	zero,24(a1)
   14cfc:	03813083          	ld	ra,56(sp)
   14d00:	03013403          	ld	s0,48(sp)
   14d04:	02813483          	ld	s1,40(sp)
   14d08:	02013903          	ld	s2,32(sp)
   14d0c:	01813983          	ld	s3,24(sp)
   14d10:	04010113          	addi	sp,sp,64
   14d14:	00008067          	ret
   14d18:	0007869b          	sext.w	a3,a5
   14d1c:	01255783          	lhu	a5,18(a0)
   14d20:	00458913          	addi	s2,a1,4
   14d24:	00f6f7b3          	and	a5,a3,a5
   14d28:	02d79e63          	bne	a5,a3,14d64 <emovi+0xd4>
   14d2c:	00b13423          	sd	a1,8(sp)
   14d30:	00000097          	auipc	ra,0x0
   14d34:	ea8080e7          	jalr	-344(ra) # 14bd8 <eisnan.part.0>
   14d38:	00813583          	ld	a1,8(sp)
   14d3c:	02050463          	beqz	a0,14d64 <emovi+0xd4>
   14d40:	00658793          	addi	a5,a1,6
   14d44:	00059223          	sh	zero,4(a1)
   14d48:	ffc48513          	addi	a0,s1,-4
   14d4c:	00045703          	lhu	a4,0(s0)
   14d50:	ffe40413          	addi	s0,s0,-2
   14d54:	00278793          	addi	a5,a5,2
   14d58:	fee79f23          	sh	a4,-2(a5)
   14d5c:	fe8518e3          	bne	a0,s0,14d4c <emovi+0xbc>
   14d60:	f9dff06f          	j	14cfc <emovi+0x6c>
   14d64:	01a58993          	addi	s3,a1,26
   14d68:	00290913          	addi	s2,s2,2
   14d6c:	fe091f23          	sh	zero,-2(s2)
   14d70:	ff299ce3          	bne	s3,s2,14d68 <emovi+0xd8>
   14d74:	03813083          	ld	ra,56(sp)
   14d78:	03013403          	ld	s0,48(sp)
   14d7c:	02813483          	ld	s1,40(sp)
   14d80:	02013903          	ld	s2,32(sp)
   14d84:	01813983          	ld	s3,24(sp)
   14d88:	04010113          	addi	sp,sp,64
   14d8c:	00008067          	ret

0000000000014d90 <ecmp>:
   14d90:	01255783          	lhu	a5,18(a0)
   14d94:	fa010113          	addi	sp,sp,-96
   14d98:	04813823          	sd	s0,80(sp)
   14d9c:	fff7c793          	not	a5,a5
   14da0:	04913423          	sd	s1,72(sp)
   14da4:	04113c23          	sd	ra,88(sp)
   14da8:	03179713          	slli	a4,a5,0x31
   14dac:	00050493          	mv	s1,a0
   14db0:	00058413          	mv	s0,a1
   14db4:	00071863          	bnez	a4,14dc4 <ecmp+0x34>
   14db8:	00000097          	auipc	ra,0x0
   14dbc:	e20080e7          	jalr	-480(ra) # 14bd8 <eisnan.part.0>
   14dc0:	08051863          	bnez	a0,14e50 <ecmp+0xc0>
   14dc4:	01245783          	lhu	a5,18(s0)
   14dc8:	fff7c793          	not	a5,a5
   14dcc:	03179713          	slli	a4,a5,0x31
   14dd0:	06070863          	beqz	a4,14e40 <ecmp+0xb0>
   14dd4:	00010593          	mv	a1,sp
   14dd8:	00048513          	mv	a0,s1
   14ddc:	00000097          	auipc	ra,0x0
   14de0:	eb4080e7          	jalr	-332(ra) # 14c90 <emovi>
   14de4:	02010593          	addi	a1,sp,32
   14de8:	00040513          	mv	a0,s0
   14dec:	00000097          	auipc	ra,0x0
   14df0:	ea4080e7          	jalr	-348(ra) # 14c90 <emovi>
   14df4:	00015583          	lhu	a1,0(sp)
   14df8:	02015783          	lhu	a5,32(sp)
   14dfc:	04b78e63          	beq	a5,a1,14e58 <ecmp+0xc8>
   14e00:	00210793          	addi	a5,sp,2
   14e04:	02210713          	addi	a4,sp,34
   14e08:	01810613          	addi	a2,sp,24
   14e0c:	0007d683          	lhu	a3,0(a5)
   14e10:	00278793          	addi	a5,a5,2
   14e14:	08069863          	bnez	a3,14ea4 <ecmp+0x114>
   14e18:	00075683          	lhu	a3,0(a4)
   14e1c:	00270713          	addi	a4,a4,2
   14e20:	08069263          	bnez	a3,14ea4 <ecmp+0x114>
   14e24:	fec794e3          	bne	a5,a2,14e0c <ecmp+0x7c>
   14e28:	00000513          	li	a0,0
   14e2c:	05813083          	ld	ra,88(sp)
   14e30:	05013403          	ld	s0,80(sp)
   14e34:	04813483          	ld	s1,72(sp)
   14e38:	06010113          	addi	sp,sp,96
   14e3c:	00008067          	ret
   14e40:	00040513          	mv	a0,s0
   14e44:	00000097          	auipc	ra,0x0
   14e48:	d94080e7          	jalr	-620(ra) # 14bd8 <eisnan.part.0>
   14e4c:	f80504e3          	beqz	a0,14dd4 <ecmp+0x44>
   14e50:	ffe00513          	li	a0,-2
   14e54:	fd9ff06f          	j	14e2c <ecmp+0x9c>
   14e58:	00100513          	li	a0,1
   14e5c:	04059c63          	bnez	a1,14eb4 <ecmp+0x124>
   14e60:	00215603          	lhu	a2,2(sp)
   14e64:	02215683          	lhu	a3,34(sp)
   14e68:	00210713          	addi	a4,sp,2
   14e6c:	02210793          	addi	a5,sp,34
   14e70:	03810593          	addi	a1,sp,56
   14e74:	00278793          	addi	a5,a5,2
   14e78:	00270713          	addi	a4,a4,2
   14e7c:	00d61e63          	bne	a2,a3,14e98 <ecmp+0x108>
   14e80:	fab784e3          	beq	a5,a1,14e28 <ecmp+0x98>
   14e84:	00075603          	lhu	a2,0(a4)
   14e88:	0007d683          	lhu	a3,0(a5)
   14e8c:	00270713          	addi	a4,a4,2
   14e90:	00278793          	addi	a5,a5,2
   14e94:	fed606e3          	beq	a2,a3,14e80 <ecmp+0xf0>
   14e98:	f8c6eae3          	bltu	a3,a2,14e2c <ecmp+0x9c>
   14e9c:	40a0053b          	negw	a0,a0
   14ea0:	f8dff06f          	j	14e2c <ecmp+0x9c>
   14ea4:	00100513          	li	a0,1
   14ea8:	f80582e3          	beqz	a1,14e2c <ecmp+0x9c>
   14eac:	fff00513          	li	a0,-1
   14eb0:	f7dff06f          	j	14e2c <ecmp+0x9c>
   14eb4:	fff00513          	li	a0,-1
   14eb8:	fa9ff06f          	j	14e60 <ecmp+0xd0>

0000000000014ebc <eisinf.part.0>:
   14ebc:	ff010113          	addi	sp,sp,-16
   14ec0:	00113423          	sd	ra,8(sp)
   14ec4:	00000097          	auipc	ra,0x0
   14ec8:	d14080e7          	jalr	-748(ra) # 14bd8 <eisnan.part.0>
   14ecc:	00813083          	ld	ra,8(sp)
   14ed0:	00153513          	seqz	a0,a0
   14ed4:	01010113          	addi	sp,sp,16
   14ed8:	00008067          	ret

0000000000014edc <eshift.part.0>:
   14edc:	fd010113          	addi	sp,sp,-48
   14ee0:	02813023          	sd	s0,32(sp)
   14ee4:	00913c23          	sd	s1,24(sp)
   14ee8:	02113423          	sd	ra,40(sp)
   14eec:	01213823          	sd	s2,16(sp)
   14ef0:	01313423          	sd	s3,8(sp)
   14ef4:	00058493          	mv	s1,a1
   14ef8:	00050413          	mv	s0,a0
   14efc:	0a05c663          	bltz	a1,14fa8 <eshift.part.0+0xcc>
   14f00:	00f00793          	li	a5,15
   14f04:	00058613          	mv	a2,a1
   14f08:	00450513          	addi	a0,a0,4
   14f0c:	01840693          	addi	a3,s0,24
   14f10:	00f00593          	li	a1,15
   14f14:	0297d463          	bge	a5,s1,14f3c <eshift.part.0+0x60>
   14f18:	00050793          	mv	a5,a0
   14f1c:	0027d703          	lhu	a4,2(a5)
   14f20:	00278793          	addi	a5,a5,2
   14f24:	fee79f23          	sh	a4,-2(a5)
   14f28:	fed79ae3          	bne	a5,a3,14f1c <eshift.part.0+0x40>
   14f2c:	00041c23          	sh	zero,24(s0)
   14f30:	ff06061b          	addiw	a2,a2,-16
   14f34:	fec5c2e3          	blt	a1,a2,14f18 <eshift.part.0+0x3c>
   14f38:	00f4f493          	andi	s1,s1,15
   14f3c:	00700793          	li	a5,7
   14f40:	0297d863          	bge	a5,s1,14f70 <eshift.part.0+0x94>
   14f44:	01840713          	addi	a4,s0,24
   14f48:	00240593          	addi	a1,s0,2
   14f4c:	00000793          	li	a5,0
   14f50:	00075683          	lhu	a3,0(a4)
   14f54:	ffe70713          	addi	a4,a4,-2
   14f58:	00869613          	slli	a2,a3,0x8
   14f5c:	00c7e7b3          	or	a5,a5,a2
   14f60:	00f71123          	sh	a5,2(a4)
   14f64:	0086d793          	srli	a5,a3,0x8
   14f68:	feb714e3          	bne	a4,a1,14f50 <eshift.part.0+0x74>
   14f6c:	ff84849b          	addiw	s1,s1,-8
   14f70:	00048c63          	beqz	s1,14f88 <eshift.part.0+0xac>
   14f74:	fff4849b          	addiw	s1,s1,-1
   14f78:	00040513          	mv	a0,s0
   14f7c:	00000097          	auipc	ra,0x0
   14f80:	b50080e7          	jalr	-1200(ra) # 14acc <eshup1>
   14f84:	fe0498e3          	bnez	s1,14f74 <eshift.part.0+0x98>
   14f88:	00000513          	li	a0,0
   14f8c:	02813083          	ld	ra,40(sp)
   14f90:	02013403          	ld	s0,32(sp)
   14f94:	01813483          	ld	s1,24(sp)
   14f98:	01013903          	ld	s2,16(sp)
   14f9c:	00813983          	ld	s3,8(sp)
   14fa0:	03010113          	addi	sp,sp,48
   14fa4:	00008067          	ret
   14fa8:	ff100793          	li	a5,-15
   14fac:	40b0093b          	negw	s2,a1
   14fb0:	12f5de63          	bge	a1,a5,150ec <eshift.part.0+0x210>
   14fb4:	01850593          	addi	a1,a0,24
   14fb8:	00000993          	li	s3,0
   14fbc:	00450693          	addi	a3,a0,4
   14fc0:	00f00613          	li	a2,15
   14fc4:	01845703          	lhu	a4,24(s0)
   14fc8:	00058793          	mv	a5,a1
   14fcc:	00e9e9b3          	or	s3,s3,a4
   14fd0:	ffe7d703          	lhu	a4,-2(a5)
   14fd4:	ffe78793          	addi	a5,a5,-2
   14fd8:	00e79123          	sh	a4,2(a5)
   14fdc:	fed79ae3          	bne	a5,a3,14fd0 <eshift.part.0+0xf4>
   14fe0:	00041223          	sh	zero,4(s0)
   14fe4:	ff09091b          	addiw	s2,s2,-16
   14fe8:	fd264ee3          	blt	a2,s2,14fc4 <eshift.part.0+0xe8>
   14fec:	ff000793          	li	a5,-16
   14ff0:	ff100713          	li	a4,-15
   14ff4:	409787bb          	subw	a5,a5,s1
   14ff8:	00000913          	li	s2,0
   14ffc:	0ae4c663          	blt	s1,a4,150a8 <eshift.part.0+0x1cc>
   15000:	00f9093b          	addw	s2,s2,a5
   15004:	00700793          	li	a5,7
   15008:	0527d663          	bge	a5,s2,15054 <eshift.part.0+0x178>
   1500c:	0109999b          	slliw	s3,s3,0x10
   15010:	4109d99b          	sraiw	s3,s3,0x10
   15014:	01844783          	lbu	a5,24(s0)
   15018:	01a40593          	addi	a1,s0,26
   1501c:	00f9e9b3          	or	s3,s3,a5
   15020:	03099993          	slli	s3,s3,0x30
   15024:	0309d993          	srli	s3,s3,0x30
   15028:	00000793          	li	a5,0
   1502c:	0006d603          	lhu	a2,0(a3)
   15030:	00268693          	addi	a3,a3,2
   15034:	0086571b          	srliw	a4,a2,0x8
   15038:	00e7e733          	or	a4,a5,a4
   1503c:	0086179b          	slliw	a5,a2,0x8
   15040:	03079793          	slli	a5,a5,0x30
   15044:	fee69f23          	sh	a4,-2(a3)
   15048:	0307d793          	srli	a5,a5,0x30
   1504c:	feb690e3          	bne	a3,a1,1502c <eshift.part.0+0x150>
   15050:	ff89091b          	addiw	s2,s2,-8
   15054:	06090e63          	beqz	s2,150d0 <eshift.part.0+0x1f4>
   15058:	01845783          	lhu	a5,24(s0)
   1505c:	fff9091b          	addiw	s2,s2,-1
   15060:	00040513          	mv	a0,s0
   15064:	0017f793          	andi	a5,a5,1
   15068:	0137e9b3          	or	s3,a5,s3
   1506c:	00000097          	auipc	ra,0x0
   15070:	9f8080e7          	jalr	-1544(ra) # 14a64 <eshdn1>
   15074:	fe0912e3          	bnez	s2,15058 <eshift.part.0+0x17c>
   15078:	0109979b          	slliw	a5,s3,0x10
   1507c:	4107d79b          	sraiw	a5,a5,0x10
   15080:	04079063          	bnez	a5,150c0 <eshift.part.0+0x1e4>
   15084:	03099513          	slli	a0,s3,0x30
   15088:	03055513          	srli	a0,a0,0x30
   1508c:	02813083          	ld	ra,40(sp)
   15090:	02013403          	ld	s0,32(sp)
   15094:	01813483          	ld	s1,24(sp)
   15098:	01013903          	ld	s2,16(sp)
   1509c:	00813983          	ld	s3,8(sp)
   150a0:	03010113          	addi	sp,sp,48
   150a4:	00008067          	ret
   150a8:	ff07f913          	andi	s2,a5,-16
   150ac:	4120093b          	negw	s2,s2
   150b0:	00f9093b          	addw	s2,s2,a5
   150b4:	00700793          	li	a5,7
   150b8:	f927dee3          	bge	a5,s2,15054 <eshift.part.0+0x178>
   150bc:	f51ff06f          	j	1500c <eshift.part.0+0x130>
   150c0:	00100993          	li	s3,1
   150c4:	03099513          	slli	a0,s3,0x30
   150c8:	03055513          	srli	a0,a0,0x30
   150cc:	fc1ff06f          	j	1508c <eshift.part.0+0x1b0>
   150d0:	00098513          	mv	a0,s3
   150d4:	00099863          	bnez	s3,150e4 <eshift.part.0+0x208>
   150d8:	03051513          	slli	a0,a0,0x30
   150dc:	03055513          	srli	a0,a0,0x30
   150e0:	eadff06f          	j	14f8c <eshift.part.0+0xb0>
   150e4:	00100513          	li	a0,1
   150e8:	ff1ff06f          	j	150d8 <eshift.part.0+0x1fc>
   150ec:	ff900793          	li	a5,-7
   150f0:	00000993          	li	s3,0
   150f4:	f6f5d2e3          	bge	a1,a5,15058 <eshift.part.0+0x17c>
   150f8:	00440693          	addi	a3,s0,4
   150fc:	f19ff06f          	j	15014 <eshift.part.0+0x138>

0000000000015100 <enormlz>:
   15100:	00455783          	lhu	a5,4(a0)
   15104:	fe010113          	addi	sp,sp,-32
   15108:	00913423          	sd	s1,8(sp)
   1510c:	00113c23          	sd	ra,24(sp)
   15110:	00813823          	sd	s0,16(sp)
   15114:	01213023          	sd	s2,0(sp)
   15118:	00050493          	mv	s1,a0
   1511c:	0e079263          	bnez	a5,15200 <enormlz+0x100>
   15120:	00655703          	lhu	a4,6(a0)
   15124:	00000413          	li	s0,0
   15128:	0107179b          	slliw	a5,a4,0x10
   1512c:	4107d79b          	sraiw	a5,a5,0x10
   15130:	02079693          	slli	a3,a5,0x20
   15134:	0a06c863          	bltz	a3,151e4 <enormlz+0xe4>
   15138:	01a50693          	addi	a3,a0,26
   1513c:	0a000613          	li	a2,160
   15140:	02071863          	bnez	a4,15170 <enormlz+0x70>
   15144:	00648793          	addi	a5,s1,6
   15148:	0080006f          	j	15150 <enormlz+0x50>
   1514c:	0007d703          	lhu	a4,0(a5)
   15150:	00278793          	addi	a5,a5,2
   15154:	fee79e23          	sh	a4,-4(a5)
   15158:	fef69ae3          	bne	a3,a5,1514c <enormlz+0x4c>
   1515c:	00049c23          	sh	zero,24(s1)
   15160:	0104041b          	addiw	s0,s0,16
   15164:	08c40063          	beq	s0,a2,151e4 <enormlz+0xe4>
   15168:	0064d703          	lhu	a4,6(s1)
   1516c:	fc070ce3          	beqz	a4,15144 <enormlz+0x44>
   15170:	f0077793          	andi	a5,a4,-256
   15174:	04079063          	bnez	a5,151b4 <enormlz+0xb4>
   15178:	01848513          	addi	a0,s1,24
   1517c:	00248593          	addi	a1,s1,2
   15180:	00000793          	li	a5,0
   15184:	00050713          	mv	a4,a0
   15188:	00075683          	lhu	a3,0(a4)
   1518c:	ffe70713          	addi	a4,a4,-2
   15190:	00869613          	slli	a2,a3,0x8
   15194:	00c7e7b3          	or	a5,a5,a2
   15198:	00f71123          	sh	a5,2(a4)
   1519c:	0086d793          	srli	a5,a3,0x8
   151a0:	fee594e3          	bne	a1,a4,15188 <enormlz+0x88>
   151a4:	0064d703          	lhu	a4,6(s1)
   151a8:	0084041b          	addiw	s0,s0,8
   151ac:	f0077793          	andi	a5,a4,-256
   151b0:	fc0788e3          	beqz	a5,15180 <enormlz+0x80>
   151b4:	0a000913          	li	s2,160
   151b8:	0180006f          	j	151d0 <enormlz+0xd0>
   151bc:	0014041b          	addiw	s0,s0,1
   151c0:	00000097          	auipc	ra,0x0
   151c4:	90c080e7          	jalr	-1780(ra) # 14acc <eshup1>
   151c8:	00894e63          	blt	s2,s0,151e4 <enormlz+0xe4>
   151cc:	0064d703          	lhu	a4,6(s1)
   151d0:	0107171b          	slliw	a4,a4,0x10
   151d4:	4107571b          	sraiw	a4,a4,0x10
   151d8:	02071793          	slli	a5,a4,0x20
   151dc:	00048513          	mv	a0,s1
   151e0:	fc07dee3          	bgez	a5,151bc <enormlz+0xbc>
   151e4:	01813083          	ld	ra,24(sp)
   151e8:	00040513          	mv	a0,s0
   151ec:	01013403          	ld	s0,16(sp)
   151f0:	00813483          	ld	s1,8(sp)
   151f4:	00013903          	ld	s2,0(sp)
   151f8:	02010113          	addi	sp,sp,32
   151fc:	00008067          	ret
   15200:	f007f713          	andi	a4,a5,-256
   15204:	00000413          	li	s0,0
   15208:	04071263          	bnez	a4,1524c <enormlz+0x14c>
   1520c:	f6f00913          	li	s2,-145
   15210:	0180006f          	j	15228 <enormlz+0x128>
   15214:	fff4041b          	addiw	s0,s0,-1
   15218:	00000097          	auipc	ra,0x0
   1521c:	84c080e7          	jalr	-1972(ra) # 14a64 <eshdn1>
   15220:	fd2402e3          	beq	s0,s2,151e4 <enormlz+0xe4>
   15224:	0044d783          	lhu	a5,4(s1)
   15228:	00048513          	mv	a0,s1
   1522c:	fe0794e3          	bnez	a5,15214 <enormlz+0x114>
   15230:	01813083          	ld	ra,24(sp)
   15234:	00040513          	mv	a0,s0
   15238:	01013403          	ld	s0,16(sp)
   1523c:	00813483          	ld	s1,8(sp)
   15240:	00013903          	ld	s2,0(sp)
   15244:	02010113          	addi	sp,sp,32
   15248:	00008067          	ret
   1524c:	00450693          	addi	a3,a0,4
   15250:	01a50593          	addi	a1,a0,26
   15254:	00000713          	li	a4,0
   15258:	0080006f          	j	15260 <enormlz+0x160>
   1525c:	0006d783          	lhu	a5,0(a3)
   15260:	0087d61b          	srliw	a2,a5,0x8
   15264:	00c76733          	or	a4,a4,a2
   15268:	0087979b          	slliw	a5,a5,0x8
   1526c:	00e69023          	sh	a4,0(a3)
   15270:	03079713          	slli	a4,a5,0x30
   15274:	00268693          	addi	a3,a3,2
   15278:	03075713          	srli	a4,a4,0x30
   1527c:	feb690e3          	bne	a3,a1,1525c <enormlz+0x15c>
   15280:	0044d783          	lhu	a5,4(s1)
   15284:	ff800413          	li	s0,-8
   15288:	f85ff06f          	j	1520c <enormlz+0x10c>

000000000001528c <emdnorm>:
   1528c:	fc010113          	addi	sp,sp,-64
   15290:	02813823          	sd	s0,48(sp)
   15294:	02913423          	sd	s1,40(sp)
   15298:	03213023          	sd	s2,32(sp)
   1529c:	01313c23          	sd	s3,24(sp)
   152a0:	01413823          	sd	s4,16(sp)
   152a4:	01513423          	sd	s5,8(sp)
   152a8:	00068913          	mv	s2,a3
   152ac:	00078493          	mv	s1,a5
   152b0:	02113c23          	sd	ra,56(sp)
   152b4:	00050413          	mv	s0,a0
   152b8:	00058993          	mv	s3,a1
   152bc:	00060a13          	mv	s4,a2
   152c0:	00070a93          	mv	s5,a4
   152c4:	00000097          	auipc	ra,0x0
   152c8:	e3c080e7          	jalr	-452(ra) # 15100 <enormlz>
   152cc:	09000793          	li	a5,144
   152d0:	40a90933          	sub	s2,s2,a0
   152d4:	18a7dc63          	bge	a5,a0,1546c <emdnorm+0x1e0>
   152d8:	000087b7          	lui	a5,0x8
   152dc:	ffe78793          	addi	a5,a5,-2 # 7ffe <register_fini-0x80b2>
   152e0:	2127dc63          	bge	a5,s2,154f8 <emdnorm+0x26c>
   152e4:	1e0a8663          	beqz	s5,154d0 <emdnorm+0x244>
   152e8:	0044a503          	lw	a0,4(s1)
   152ec:	0004a783          	lw	a5,0(s1)
   152f0:	06a78c63          	beq	a5,a0,15368 <emdnorm+0xdc>
   152f4:	01a48713          	addi	a4,s1,26
   152f8:	03448793          	addi	a5,s1,52
   152fc:	00270713          	addi	a4,a4,2
   15300:	fe071f23          	sh	zero,-2(a4)
   15304:	fef71ce3          	bne	a4,a5,152fc <emdnorm+0x70>
   15308:	03800793          	li	a5,56
   1530c:	36f50663          	beq	a0,a5,15678 <emdnorm+0x3ec>
   15310:	18a7d063          	bge	a5,a0,15490 <emdnorm+0x204>
   15314:	04000793          	li	a5,64
   15318:	32f50663          	beq	a0,a5,15644 <emdnorm+0x3b8>
   1531c:	07100793          	li	a5,113
   15320:	36f51863          	bne	a0,a5,15690 <emdnorm+0x404>
   15324:	00a00793          	li	a5,10
   15328:	40008737          	lui	a4,0x40008
   1532c:	fff70713          	addi	a4,a4,-1 # 40007fff <__BSS_END__+0x3ffe35f7>
   15330:	02079793          	slli	a5,a5,0x20
   15334:	00a78793          	addi	a5,a5,10
   15338:	00e4aa23          	sw	a4,20(s1)
   1533c:	ffff8737          	lui	a4,0xffff8
   15340:	00e49c23          	sh	a4,24(s1)
   15344:	00f4b423          	sd	a5,8(s1)
   15348:	00008737          	lui	a4,0x8
   1534c:	00a00793          	li	a5,10
   15350:	00878793          	addi	a5,a5,8
   15354:	00179793          	slli	a5,a5,0x1
   15358:	00f487b3          	add	a5,s1,a5
   1535c:	00e79523          	sh	a4,10(a5)
   15360:	00a4a023          	sw	a0,0(s1)
   15364:	1d205a63          	blez	s2,15538 <emdnorm+0x2ac>
   15368:	0084a683          	lw	a3,8(s1)
   1536c:	0144d603          	lhu	a2,20(s1)
   15370:	08f00793          	li	a5,143
   15374:	00169713          	slli	a4,a3,0x1
   15378:	00e40833          	add	a6,s0,a4
   1537c:	00085883          	lhu	a7,0(a6) # ffffffffffff8000 <__BSS_END__+0xfffffffffffd35f8>
   15380:	00c8f5b3          	and	a1,a7,a2
   15384:	04a7c863          	blt	a5,a0,153d4 <emdnorm+0x148>
   15388:	00b00793          	li	a5,11
   1538c:	04d7c463          	blt	a5,a3,153d4 <emdnorm+0x148>
   15390:	40d787bb          	subw	a5,a5,a3
   15394:	02079793          	slli	a5,a5,0x20
   15398:	0207d793          	srli	a5,a5,0x20
   1539c:	00d787b3          	add	a5,a5,a3
   153a0:	00179693          	slli	a3,a5,0x1
   153a4:	00270713          	addi	a4,a4,2 # 8002 <register_fini-0x80ae>
   153a8:	00440793          	addi	a5,s0,4
   153ac:	00e40733          	add	a4,s0,a4
   153b0:	00f687b3          	add	a5,a3,a5
   153b4:	00075683          	lhu	a3,0(a4)
   153b8:	00068463          	beqz	a3,153c0 <emdnorm+0x134>
   153bc:	0015e593          	ori	a1,a1,1
   153c0:	00071023          	sh	zero,0(a4)
   153c4:	00270713          	addi	a4,a4,2
   153c8:	fee796e3          	bne	a5,a4,153b4 <emdnorm+0x128>
   153cc:	00085883          	lhu	a7,0(a6)
   153d0:	0144d603          	lhu	a2,20(s1)
   153d4:	fff64613          	not	a2,a2
   153d8:	01167633          	and	a2,a2,a7
   153dc:	00c81023          	sh	a2,0(a6)
   153e0:	0164d783          	lhu	a5,22(s1)
   153e4:	00b7f733          	and	a4,a5,a1
   153e8:	04070063          	beqz	a4,15428 <emdnorm+0x19c>
   153ec:	1ab78c63          	beq	a5,a1,155a4 <emdnorm+0x318>
   153f0:	03248613          	addi	a2,s1,50
   153f4:	01840693          	addi	a3,s0,24
   153f8:	01c48493          	addi	s1,s1,28
   153fc:	00000713          	li	a4,0
   15400:	00065783          	lhu	a5,0(a2)
   15404:	0006d583          	lhu	a1,0(a3)
   15408:	ffe68693          	addi	a3,a3,-2
   1540c:	ffe60613          	addi	a2,a2,-2
   15410:	00b787b3          	add	a5,a5,a1
   15414:	00e787b3          	add	a5,a5,a4
   15418:	0107d713          	srli	a4,a5,0x10
   1541c:	00f69123          	sh	a5,2(a3)
   15420:	00177713          	andi	a4,a4,1
   15424:	fc961ee3          	bne	a2,s1,15400 <emdnorm+0x174>
   15428:	1b205063          	blez	s2,155c8 <emdnorm+0x33c>
   1542c:	00445783          	lhu	a5,4(s0)
   15430:	14079463          	bnez	a5,15578 <emdnorm+0x2ec>
   15434:	000087b7          	lui	a5,0x8
   15438:	00041c23          	sh	zero,24(s0)
   1543c:	ffe78793          	addi	a5,a5,-2 # 7ffe <register_fini-0x80b2>
   15440:	0927ca63          	blt	a5,s2,154d4 <emdnorm+0x248>
   15444:	01241123          	sh	s2,2(s0)
   15448:	03813083          	ld	ra,56(sp)
   1544c:	03013403          	ld	s0,48(sp)
   15450:	02813483          	ld	s1,40(sp)
   15454:	02013903          	ld	s2,32(sp)
   15458:	01813983          	ld	s3,24(sp)
   1545c:	01013a03          	ld	s4,16(sp)
   15460:	00813a83          	ld	s5,8(sp)
   15464:	04010113          	addi	sp,sp,64
   15468:	00008067          	ret
   1546c:	0e095a63          	bgez	s2,15560 <emdnorm+0x2d4>
   15470:	f7000793          	li	a5,-144
   15474:	08f95e63          	bge	s2,a5,15510 <emdnorm+0x284>
   15478:	00240793          	addi	a5,s0,2
   1547c:	01a40413          	addi	s0,s0,26
   15480:	00278793          	addi	a5,a5,2
   15484:	fe079f23          	sh	zero,-2(a5)
   15488:	fe879ce3          	bne	a5,s0,15480 <emdnorm+0x1f4>
   1548c:	fbdff06f          	j	15448 <emdnorm+0x1bc>
   15490:	01800793          	li	a5,24
   15494:	18f50263          	beq	a0,a5,15618 <emdnorm+0x38c>
   15498:	03500793          	li	a5,53
   1549c:	1ef51a63          	bne	a0,a5,15690 <emdnorm+0x404>
   154a0:	040006b7          	lui	a3,0x4000
   154a4:	00001737          	lui	a4,0x1
   154a8:	7ff68693          	addi	a3,a3,2047 # 40007ff <__BSS_END__+0x3fdbdf7>
   154ac:	00600793          	li	a5,6
   154b0:	80070713          	addi	a4,a4,-2048 # 800 <register_fini-0xf8b0>
   154b4:	00d4aa23          	sw	a3,20(s1)
